Certificate:
    Data:
        Version: 3 (0x2)
        Serial Number: 268435675 (0x100000db)
    Signature Algorithm: sha256WithRSAEncryption
        Issuer: C=DE, ST=Hessen, O=privacyidea, CN=CA001
        Validity
            Not Before: Jan  9 18:39:35 2019 GMT
            Not After : Jan 28 18:39:35 2021 GMT
        Subject: CN=Steve Test/emailAddress=steve@openssl.org
        Subject Public Key Info:
            Public Key Algorithm: rsaEncryption
                Public-Key: (2048 bit)
                Modulus:
                    00:d2:81:89:20:51:48:0f:73:f4:11:32:24:d5:1f:
                    1c:fd:5c:f5:b6:e6:c5:f0:52:81:dc:d2:af:66:4a:
                    7c:93:31:61:5c:af:d1:6d:06:70:03:60:7c:72:0c:
                    88:dd:49:cd:9e:02:6c:d2:5a:d7:53:0f:f3:da:be:
                    69:64:b5:0f:0c:00:e3:b3:50:47:a3:b3:9b:ba:13:
                    50:d6:58:5a:4b:ab:39:e0:11:ca:0a:27:67:03:78:
                    22:66:6d:92:1e:1b:5c:49:ae:e6:6b:d1:8e:3b:9d:
                    06:d3:c6:ac:4d:53:43:10:ab:e8:96:c1:87:82:97:
                    99:8f:20:d3:99:12:37:31:84:e1:8a:ff:29:03:5f:
                    22:90:3e:7f:9b:e0:20:c1:ad:dc:ae:4c:39:1a:31:
                    96:17:02:8c:b2:d9:b4:0d:20:12:9b:7d:86:54:fd:
                    33:fd:c1:2a:62:46:f8:60:96:cf:6e:01:6f:22:df:
                    13:47:e7:97:ec:05:72:23:a3:62:f8:fa:ef:ac:9c:
                    72:f0:37:cb:2f:37:cf:90:a8:27:51:86:c6:d7:78:
                    08:8f:7e:25:a2:15:70:a2:fb:1c:b6:15:5e:a0:97:
                    8b:81:4c:09:28:8a:27:3b:94:bc:71:db:5b:71:37:
                    9a:2b:16:e0:6f:b5:c9:f5:4b:4f:20:ba:65:cf:af:
                    ad:ad
                Exponent: 65537 (0x10001)
        X509v3 extensions:
            X509v3 Key Usage: 
                Digital Signature, Key Encipherment
            X509v3 Basic Constraints: 
                CA:FALSE
            Netscape Cert Type: 
                SSL Server
            Netscape Comment: 
                OpenSSL Generated Server Certificate
            X509v3 Subject Key Identifier: 
                E5:25:6D:3E:AF:0D:DD:3F:4C:F2:45:19:39:D5:14:DB:7E:9C:C0:AD
            X509v3 Authority Key Identifier: 
                keyid:F4:A7:C0:CC:91:46:AF:64:F3:91:F2:27:F8:C8:B2:6F:8A:87:32:73
                DirName:/C=DE/ST=Hessen/O=privacyidea/CN=CA001
                serial:FB:C8:EB:AC:83:CD:12:07

            X509v3 Extended Key Usage: 
                TLS Web Server Authentication
    Signature Algorithm: sha256WithRSAEncryption
         24:23:20:9f:ad:a4:17:42:89:80:b5:b1:ee:21:41:c4:85:db:
         cf:ec:e4:1c:1d:f9:fc:3e:45:2e:66:b1:53:35:b9:88:da:85:
         3b:8d:1c:1c:df:46:98:81:bb:ec:c3:ff:d2:dc:e0:e9:22:18:
         54:50:ad:3b:35:67:12:0b:91:68:ce:3d:bd:5f:14:e3:8f:21:
         cf:c4:6f:2a:82:e5:25:29:5b:34:24:ad:f3:3c:c0:b1:9f:a5:
         08:72:f7:04:e1:c0:dd:8e:2a:4d:31:88:05:48:e8:34:07:bd:
         6d:ca:83:ab:ff:49:26:13:de:dd:f3:d8:2a:f2:cd:ff:7b:22:
         1c:61:d8:13:87:2f:b7:c7:40:b1:21:f0:44:24:7c:4e:ac:ab:
         00:5f:9b:03:a0:10:05:a0:06:ae:51:d6:bb:b2:f8:b1:b7:b2:
         88:96:8e:ae:2b:d2:0b:0b:0a:f2:44:35:5b:b1:74:98:88:20:
         69:e9:db:53:62:3a:86:59:70:66:f6:92:01:7c:da:d7:b7:f8:
         27:5f:bf:41:24:e5:4e:33:b2:c0:80:04:90:14:61:e3:16:17:
         18:43:11:af:00:f6:d2:ec:ef:c2:ca:a7:26:a8:a3:42:a6:a6:
         5d:2e:1b:da:dd:56:18:11:4f:bc:0b:38:78:20:f4:d5:38:b1:
         06:39:86:68
-----BEGIN CERTIFICATE-----
MIIECTCCAvGgAwIBAgIEEAAA2zANBgkqhkiG9w0BAQsFADBEMQswCQYDVQQGEwJE
RTEPMA0GA1UECAwGSGVzc2VuMRQwEgYDVQQKDAtwcml2YWN5aWRlYTEOMAwGA1UE
AwwFQ0EwMDEwHhcNMTkwMTA5MTgzOTM1WhcNMjEwMTI4MTgzOTM1WjA3MRMwEQYD
VQQDDApTdGV2ZSBUZXN0MSAwHgYJKoZIhvcNAQkBFhFzdGV2ZUBvcGVuc3NsLm9y
ZzCCASIwDQYJKoZIhvcNAQEBBQADggEPADCCAQoCggEBANKBiSBRSA9z9BEyJNUf
HP1c9bbmxfBSgdzSr2ZKfJMxYVyv0W0GcANgfHIMiN1JzZ4CbNJa11MP89q+aWS1
DwwA47NQR6Ozm7oTUNZYWkurOeARygonZwN4ImZtkh4bXEmu5mvRjjudBtPGrE1T
QxCr6JbBh4KXmY8g05kSNzGE4Yr/KQNfIpA+f5vgIMGt3K5MORoxlhcCjLLZtA0g
Ept9hlT9M/3BKmJG+GCWz24BbyLfE0fnl+wFciOjYvj676yccvA3yy83z5CoJ1GG
xtd4CI9+JaIVcKL7HLYVXqCXi4FMCSiKJzuUvHHbW3E3misW4G+1yfVLTyC6Zc+v
ra0CAwEAAaOCAQ4wggEKMAsGA1UdDwQEAwIFoDAJBgNVHRMEAjAAMBEGCWCGSAGG
+EIBAQQEAwIGQDAzBglghkgBhvhCAQ0EJhYkT3BlblNTTCBHZW5lcmF0ZWQgU2Vy
dmVyIENlcnRpZmljYXRlMB0GA1UdDgQWBBTlJW0+rw3dP0zyRRk51RTbfpzArTB0
BgNVHSMEbTBrgBT0p8DMkUavZPOR8if4yLJviocyc6FIpEYwRDELMAkGA1UEBhMC
REUxDzANBgNVBAgMBkhlc3NlbjEUMBIGA1UECgwLcHJpdmFjeWlkZWExDjAMBgNV
BAMMBUNBMDAxggkA+8jrrIPNEgcwEwYDVR0lBAwwCgYIKwYBBQUHAwEwDQYJKoZI
hvcNAQELBQADggEBACQjIJ+tpBdCiYC1se4hQcSF28/s5Bwd+fw+RS5msVM1uYja
hTuNHBzfRpiBu+zD/9Lc4OkiGFRQrTs1ZxILkWjOPb1fFOOPIc/EbyqC5SUpWzQk
rfM8wLGfpQhy9wThwN2OKk0xiAVI6DQHvW3Kg6v/SSYT3t3z2Cryzf97Ihxh2BOH
L7fHQLEh8EQkfE6sqwBfmwOgEAWgBq5R1ruy+LG3soiWjq4r0gsLCvJENVuxdJiI
IGnp21NiOoZZcGb2kgF82te3+Cdfv0Ek5U4zssCABJAUYeMWFxhDEa8A9tLs78LK
pyaoo0Kmpl0uG9rdVhgRT7wLOHgg9NU4sQY5hmg=
-----END CERTIFICATE-----
