Certificate:
    Data:
        Version: 3 (0x2)
        Serial Number: 268435674 (0x100000da)
    Signature Algorithm: sha256WithRSAEncryption
        Issuer: C=DE, ST=Hessen, O=privacyidea, CN=CA001
        Validity
            Not Before: Jan  9 18:39:35 2019 GMT
            Not After : Jan  9 18:39:35 2020 GMT
        Subject: CN=Steve Test/emailAddress=steve@openssl.org
        Subject Public Key Info:
            Public Key Algorithm: rsaEncryption
                Public-Key: (2048 bit)
                Modulus:
                    00:d2:81:89:20:51:48:0f:73:f4:11:32:24:d5:1f:
                    1c:fd:5c:f5:b6:e6:c5:f0:52:81:dc:d2:af:66:4a:
                    7c:93:31:61:5c:af:d1:6d:06:70:03:60:7c:72:0c:
                    88:dd:49:cd:9e:02:6c:d2:5a:d7:53:0f:f3:da:be:
                    69:64:b5:0f:0c:00:e3:b3:50:47:a3:b3:9b:ba:13:
                    50:d6:58:5a:4b:ab:39:e0:11:ca:0a:27:67:03:78:
                    22:66:6d:92:1e:1b:5c:49:ae:e6:6b:d1:8e:3b:9d:
                    06:d3:c6:ac:4d:53:43:10:ab:e8:96:c1:87:82:97:
                    99:8f:20:d3:99:12:37:31:84:e1:8a:ff:29:03:5f:
                    22:90:3e:7f:9b:e0:20:c1:ad:dc:ae:4c:39:1a:31:
                    96:17:02:8c:b2:d9:b4:0d:20:12:9b:7d:86:54:fd:
                    33:fd:c1:2a:62:46:f8:60:96:cf:6e:01:6f:22:df:
                    13:47:e7:97:ec:05:72:23:a3:62:f8:fa:ef:ac:9c:
                    72:f0:37:cb:2f:37:cf:90:a8:27:51:86:c6:d7:78:
                    08:8f:7e:25:a2:15:70:a2:fb:1c:b6:15:5e:a0:97:
                    8b:81:4c:09:28:8a:27:3b:94:bc:71:db:5b:71:37:
                    9a:2b:16:e0:6f:b5:c9:f5:4b:4f:20:ba:65:cf:af:
                    ad:ad
                Exponent: 65537 (0x10001)
        X509v3 extensions:
            X509v3 Key Usage: 
                Digital Signature, Key Encipherment
            X509v3 Basic Constraints: 
                CA:FALSE
            Netscape Cert Type: 
                SSL Server
            Netscape Comment: 
                OpenSSL Generated Server Certificate
            X509v3 Subject Key Identifier: 
                E5:25:6D:3E:AF:0D:DD:3F:4C:F2:45:19:39:D5:14:DB:7E:9C:C0:AD
            X509v3 Authority Key Identifier: 
                keyid:F4:A7:C0:CC:91:46:AF:64:F3:91:F2:27:F8:C8:B2:6F:8A:87:32:73
                DirName:/C=DE/ST=Hessen/O=privacyidea/CN=CA001
                serial:FB:C8:EB:AC:83:CD:12:07

            X509v3 Extended Key Usage: 
                TLS Web Server Authentication
    Signature Algorithm: sha256WithRSAEncryption
         1d:8c:98:ee:92:8b:ca:cb:fb:8b:0d:85:70:80:b8:79:c3:c5:
         71:47:b4:b7:1d:61:22:ae:f1:db:fb:c7:c3:83:1f:f5:63:be:
         69:59:9d:fe:05:c5:cf:e5:0c:7c:f1:df:bf:25:b0:5f:ce:8c:
         14:9e:36:68:92:d9:d3:4a:56:9f:65:8c:66:a6:c8:08:ae:be:
         35:8f:e1:de:06:26:31:6a:1e:fc:02:a4:42:86:18:93:d3:2a:
         18:67:f7:16:46:55:75:e9:62:a8:85:4a:0e:39:a2:d9:24:49:
         b0:cf:48:a1:3a:ae:40:1e:74:6c:5a:a6:a5:44:1f:47:b3:69:
         cd:f7:91:14:51:6d:91:2c:21:53:6a:3a:9e:b1:a1:af:ba:e4:
         33:64:5b:9f:2a:b7:df:99:4e:76:61:21:dc:17:78:a9:dc:2a:
         08:88:86:1c:54:ef:0c:72:9f:db:d7:c5:f1:79:16:b0:dd:e6:
         44:c8:17:f2:a6:7e:8a:b9:70:89:75:7f:5c:c7:88:08:1f:0a:
         2c:0a:32:29:40:58:45:2c:80:da:ae:9d:20:06:14:a6:1b:09:
         20:b5:60:be:05:e3:74:2b:72:50:a3:f2:72:b9:70:02:ce:d0:
         b1:36:56:8e:00:52:01:e4:91:78:22:81:a6:8c:28:e3:59:68:
         e1:a3:ee:10
-----BEGIN CERTIFICATE-----
MIIECTCCAvGgAwIBAgIEEAAA2jANBgkqhkiG9w0BAQsFADBEMQswCQYDVQQGEwJE
RTEPMA0GA1UECAwGSGVzc2VuMRQwEgYDVQQKDAtwcml2YWN5aWRlYTEOMAwGA1UE
AwwFQ0EwMDEwHhcNMTkwMTA5MTgzOTM1WhcNMjAwMTA5MTgzOTM1WjA3MRMwEQYD
VQQDDApTdGV2ZSBUZXN0MSAwHgYJKoZIhvcNAQkBFhFzdGV2ZUBvcGVuc3NsLm9y
ZzCCASIwDQYJKoZIhvcNAQEBBQADggEPADCCAQoCggEBANKBiSBRSA9z9BEyJNUf
HP1c9bbmxfBSgdzSr2ZKfJMxYVyv0W0GcANgfHIMiN1JzZ4CbNJa11MP89q+aWS1
DwwA47NQR6Ozm7oTUNZYWkurOeARygonZwN4ImZtkh4bXEmu5mvRjjudBtPGrE1T
QxCr6JbBh4KXmY8g05kSNzGE4Yr/KQNfIpA+f5vgIMGt3K5MORoxlhcCjLLZtA0g
Ept9hlT9M/3BKmJG+GCWz24BbyLfE0fnl+wFciOjYvj676yccvA3yy83z5CoJ1GG
xtd4CI9+JaIVcKL7HLYVXqCXi4FMCSiKJzuUvHHbW3E3misW4G+1yfVLTyC6Zc+v
ra0CAwEAAaOCAQ4wggEKMAsGA1UdDwQEAwIFoDAJBgNVHRMEAjAAMBEGCWCGSAGG
+EIBAQQEAwIGQDAzBglghkgBhvhCAQ0EJhYkT3BlblNTTCBHZW5lcmF0ZWQgU2Vy
dmVyIENlcnRpZmljYXRlMB0GA1UdDgQWBBTlJW0+rw3dP0zyRRk51RTbfpzArTB0
BgNVHSMEbTBrgBT0p8DMkUavZPOR8if4yLJviocyc6FIpEYwRDELMAkGA1UEBhMC
REUxDzANBgNVBAgMBkhlc3NlbjEUMBIGA1UECgwLcHJpdmFjeWlkZWExDjAMBgNV
BAMMBUNBMDAxggkA+8jrrIPNEgcwEwYDVR0lBAwwCgYIKwYBBQUHAwEwDQYJKoZI
hvcNAQELBQADggEBAB2MmO6Si8rL+4sNhXCAuHnDxXFHtLcdYSKu8dv7x8ODH/Vj
vmlZnf4Fxc/lDHzx378lsF/OjBSeNmiS2dNKVp9ljGamyAiuvjWP4d4GJjFqHvwC
pEKGGJPTKhhn9xZGVXXpYqiFSg45otkkSbDPSKE6rkAedGxapqVEH0ezac33kRRR
bZEsIVNqOp6xoa+65DNkW58qt9+ZTnZhIdwXeKncKgiIhhxU7wxyn9vXxfF5FrDd
5kTIF/Kmfoq5cIl1f1zHiAgfCiwKMilAWEUsgNqunSAGFKYbCSC1YL4F43QrclCj
8nK5cALO0LE2Vo4AUgHkkXgigaaMKONZaOGj7hA=
-----END CERTIFICATE-----
