Certificate:
    Data:
        Version: 3 (0x2)
        Serial Number: 268435677 (0x100000dd)
    Signature Algorithm: sha256WithRSAEncryption
        Issuer: C=DE, ST=Hessen, O=privacyidea, CN=CA001
        Validity
            Not Before: Jan  9 18:43:28 2019 GMT
            Not After : Jan  9 18:43:28 2020 GMT
        Subject: OU=realm1, CN=cornelius/emailAddress=user@localhost.localdomain
        Subject Public Key Info:
            Public Key Algorithm: rsaEncryption
                Public-Key: (2048 bit)
                Modulus:
                    00:de:01:83:a9:bf:5b:23:d6:a7:f4:6c:ed:88:35:
                    7d:cd:af:3c:c8:e8:8d:f6:38:c0:05:19:1b:51:66:
                    fa:52:31:4b:e4:12:d1:ce:76:5b:c6:d6:00:f2:92:
                    34:83:9b:af:71:37:a2:25:eb:12:d4:52:b1:b4:39:
                    cc:dc:66:15:df:cb:6f:32:e5:86:00:d2:c8:1d:5d:
                    72:67:36:7a:68:d4:5d:85:7f:4e:ab:82:d7:12:5c:
                    21:4d:d6:e3:03:c0:d8:e4:3d:87:0b:1e:55:22:26:
                    c9:41:4f:2b:f9:40:8b:29:07:f0:37:41:50:db:7e:
                    15:57:76:e3:3b:72:47:8d:03:57:4a:7a:f7:a7:28:
                    d5:aa:be:c7:60:18:34:de:09:5e:be:1d:f0:82:91:
                    ea:51:18:62:71:06:5d:c0:c9:0f:5b:58:22:15:4e:
                    e5:71:27:da:63:99:42:aa:79:4d:0d:38:ee:75:97:
                    d6:35:40:54:7f:f4:a5:a3:81:a4:b6:22:1e:50:50:
                    21:c3:2e:b5:e7:d7:dc:3b:d6:16:1c:16:72:72:58:
                    e5:51:6b:35:21:4e:ef:9b:b2:cb:24:93:3e:ee:96:
                    60:41:ca:49:76:79:ab:c6:32:10:99:8f:ca:d4:82:
                    6d:0a:ed:2f:be:41:54:0b:69:55:b9:50:55:5b:93:
                    a2:9d
                Exponent: 65537 (0x10001)
        X509v3 extensions:
            X509v3 Key Usage: 
                Digital Signature, Key Encipherment
            X509v3 Basic Constraints: 
                CA:FALSE
            Netscape Cert Type: 
                SSL Server
            Netscape Comment: 
                OpenSSL Generated Server Certificate
            X509v3 Subject Key Identifier: 
                0B:55:E9:12:6E:E8:AB:1B:4E:44:1F:21:BD:C1:51:F4:99:4D:15:39
            X509v3 Authority Key Identifier: 
                keyid:F4:A7:C0:CC:91:46:AF:64:F3:91:F2:27:F8:C8:B2:6F:8A:87:32:73
                DirName:/C=DE/ST=Hessen/O=privacyidea/CN=CA001
                serial:FB:C8:EB:AC:83:CD:12:07

            X509v3 Extended Key Usage: 
                TLS Web Server Authentication
    Signature Algorithm: sha256WithRSAEncryption
         1a:3c:52:01:77:93:f0:f4:50:d3:29:a4:45:4a:f0:db:fe:10:
         f4:37:a5:01:37:0f:9a:6c:d2:c0:21:2f:dd:95:b7:93:77:8a:
         79:09:83:49:64:90:29:1c:1c:4b:ef:72:0f:7f:26:1d:1b:57:
         b2:ee:88:c2:bc:cc:d4:87:8c:77:c1:34:1e:aa:b5:3a:2f:81:
         a5:74:c3:f5:bd:0d:5a:6e:27:47:a1:52:82:98:ce:62:c7:cc:
         77:2d:1f:c7:f5:76:67:36:9b:f9:61:d4:66:6b:09:f2:54:9e:
         09:86:65:16:46:ab:c5:d7:35:9f:b3:d3:53:76:c0:12:32:0e:
         77:87:e7:38:2a:5c:a0:64:b0:47:17:d3:87:f1:95:04:07:f6:
         ae:4b:d5:b4:22:fd:38:86:51:7b:cc:95:28:f9:fd:60:2c:84:
         a9:41:4c:46:60:c7:e0:29:fe:ab:ad:7d:44:59:f1:78:00:62:
         f4:17:d7:39:b0:ad:3a:e2:ff:5e:a0:86:a4:47:2f:65:c7:da:
         93:b9:d6:b0:67:5d:2b:54:9c:d5:8e:85:fe:91:91:8d:7f:9f:
         9b:0d:10:d4:6d:d1:d7:a0:fa:1c:5d:ef:1c:a5:c0:1d:6e:d8:
         c8:bc:4a:73:f8:59:11:ad:bf:a4:d2:cd:c8:7a:25:1e:83:8f:
         87:a7:e9:07
-----BEGIN CERTIFICATE-----
MIIEIjCCAwqgAwIBAgIEEAAA3TANBgkqhkiG9w0BAQsFADBEMQswCQYDVQQGEwJE
RTEPMA0GA1UECAwGSGVzc2VuMRQwEgYDVQQKDAtwcml2YWN5aWRlYTEOMAwGA1UE
AwwFQ0EwMDEwHhcNMTkwMTA5MTg0MzI4WhcNMjAwMTA5MTg0MzI4WjBQMQ8wDQYD
VQQLDAZyZWFsbTExEjAQBgNVBAMMCWNvcm5lbGl1czEpMCcGCSqGSIb3DQEJARYa
dXNlckBsb2NhbGhvc3QubG9jYWxkb21haW4wggEiMA0GCSqGSIb3DQEBAQUAA4IB
DwAwggEKAoIBAQDeAYOpv1sj1qf0bO2INX3NrzzI6I32OMAFGRtRZvpSMUvkEtHO
dlvG1gDykjSDm69xN6Il6xLUUrG0OczcZhXfy28y5YYA0sgdXXJnNnpo1F2Ff06r
gtcSXCFN1uMDwNjkPYcLHlUiJslBTyv5QIspB/A3QVDbfhVXduM7ckeNA1dKeven
KNWqvsdgGDTeCV6+HfCCkepRGGJxBl3AyQ9bWCIVTuVxJ9pjmUKqeU0NOO51l9Y1
QFR/9KWjgaS2Ih5QUCHDLrXn19w71hYcFnJyWOVRazUhTu+bssskkz7ulmBBykl2
eavGMhCZj8rUgm0K7S++QVQLaVW5UFVbk6KdAgMBAAGjggEOMIIBCjALBgNVHQ8E
BAMCBaAwCQYDVR0TBAIwADARBglghkgBhvhCAQEEBAMCBkAwMwYJYIZIAYb4QgEN
BCYWJE9wZW5TU0wgR2VuZXJhdGVkIFNlcnZlciBDZXJ0aWZpY2F0ZTAdBgNVHQ4E
FgQUC1XpEm7oqxtORB8hvcFR9JlNFTkwdAYDVR0jBG0wa4AU9KfAzJFGr2TzkfIn
+Miyb4qHMnOhSKRGMEQxCzAJBgNVBAYTAkRFMQ8wDQYDVQQIDAZIZXNzZW4xFDAS
BgNVBAoMC3ByaXZhY3lpZGVhMQ4wDAYDVQQDDAVDQTAwMYIJAPvI66yDzRIHMBMG
A1UdJQQMMAoGCCsGAQUFBwMBMA0GCSqGSIb3DQEBCwUAA4IBAQAaPFIBd5Pw9FDT
KaRFSvDb/hD0N6UBNw+abNLAIS/dlbeTd4p5CYNJZJApHBxL73IPfyYdG1ey7ojC
vMzUh4x3wTQeqrU6L4GldMP1vQ1abidHoVKCmM5ix8x3LR/H9XZnNpv5YdRmawny
VJ4JhmUWRqvF1zWfs9NTdsASMg53h+c4KlygZLBHF9OH8ZUEB/auS9W0Iv04hlF7
zJUo+f1gLISpQUxGYMfgKf6rrX1EWfF4AGL0F9c5sK064v9eoIakRy9lx9qTudaw
Z10rVJzVjoX+kZGNf5+bDRDUbdHXoPocXe8cpcAdbtjIvEpz+FkRrb+k0s3IeiUe
g4+Hp+kH
-----END CERTIFICATE-----
