Certificate:
    Data:
        Version: 3 (0x2)
        Serial Number: 268435665 (0x100000d1)
    Signature Algorithm: sha256WithRSAEncryption
        Issuer: C=DE, ST=Hessen, O=privacyidea, CN=CA001
        Validity
            Not Before: Jan 11 12:04:57 2019 GMT
            Not After : Jan 11 12:04:57 2020 GMT
        Subject: OU=realm1, CN=cornelius/emailAddress=user@localhost.localdomain
        Subject Public Key Info:
            Public Key Algorithm: rsaEncryption
                Public-Key: (2048 bit)
                Modulus:
                    00:ca:f9:30:94:68:6b:2e:46:36:77:34:2b:3f:d9:
                    66:5c:cc:85:0b:6e:90:64:c3:09:a6:0f:d4:b2:1d:
                    31:b6:25:5a:d1:77:22:d9:0b:0b:b0:3b:2a:5f:35:
                    31:7d:9c:c2:41:57:95:d2:ff:bd:b6:6e:55:38:0e:
                    4b:b4:50:c6:64:48:54:02:8d:90:a8:39:4b:77:6a:
                    e7:47:e8:fb:1a:8a:33:9d:aa:fe:dc:13:7c:35:ff:
                    df:6a:aa:76:14:0a:75:01:81:ad:aa:3b:7b:6a:60:
                    5a:91:3a:09:bb:3b:61:3e:56:79:7a:5b:e8:64:db:
                    be:6e:b6:c5:3f:ab:47:b6:a1:7c:76:02:76:4e:81:
                    e4:61:76:17:d1:81:7c:7f:69:b3:d5:94:ba:a1:67:
                    ac:49:44:f8:e2:48:98:5b:14:41:01:1b:6f:61:0b:
                    13:c8:19:be:69:ba:d2:ff:d7:f5:f3:95:75:5c:3a:
                    3e:c4:53:c6:b1:8d:52:9c:d7:e6:ca:de:27:86:1a:
                    2d:91:85:54:b7:59:ed:0e:49:76:05:94:17:04:7a:
                    06:60:4e:81:03:64:49:87:52:2c:dd:ef:d2:f6:9f:
                    ca:11:92:25:f1:e9:63:67:b9:20:aa:0d:2c:33:ef:
                    65:9f:98:a3:46:3d:48:0e:92:47:02:16:53:f7:59:
                    6f:fd
                Exponent: 65537 (0x10001)
        X509v3 extensions:
            X509v3 Key Usage: 
                Digital Signature, Key Encipherment
            X509v3 Basic Constraints: 
                CA:FALSE
            Netscape Cert Type: 
                SSL Server
            Netscape Comment: 
                OpenSSL Generated Server Certificate
            X509v3 Subject Key Identifier: 
                CB:24:37:A5:C5:A6:E1:26:1D:23:7E:76:B8:A5:2D:4A:6D:0D:49:49
            X509v3 Authority Key Identifier: 
                keyid:F4:A7:C0:CC:91:46:AF:64:F3:91:F2:27:F8:C8:B2:6F:8A:87:32:73
                DirName:/C=DE/ST=Hessen/O=privacyidea/CN=CA001
                serial:FB:C8:EB:AC:83:CD:12:07

            X509v3 Extended Key Usage: 
                TLS Web Server Authentication
    Signature Algorithm: sha256WithRSAEncryption
         94:45:05:23:c5:7b:69:80:7f:54:1f:0a:4a:7b:82:e2:74:4c:
         92:1e:66:59:a1:85:29:6e:25:cc:c0:f6:69:00:a3:d4:e8:24:
         80:76:20:11:7c:38:db:81:d8:be:7d:4e:ac:fa:dc:dd:d6:dd:
         b6:45:dd:72:88:0b:2d:9d:9a:83:16:d8:b1:d3:c3:95:77:1c:
         99:b9:45:a3:93:e1:06:dc:ca:d7:d3:4f:c9:0f:bd:3e:c9:3e:
         5f:ca:2d:34:b0:5e:c0:d4:f0:ed:5f:e1:7c:26:a3:1f:e9:8f:
         01:61:da:db:d4:a3:81:52:ce:24:c2:f4:61:33:1b:82:e3:46:
         fd:eb:93:b6:db:d6:11:fd:b5:b4:63:9d:08:90:3e:3e:5a:23:
         bc:14:c0:b5:7f:e4:ae:be:8f:85:ad:57:c5:a3:25:fd:82:b5:
         6e:7c:1d:ee:7e:35:9a:65:66:92:51:57:0a:e3:b8:e3:6a:2f:
         09:37:74:e2:c6:bf:86:cc:c7:23:14:40:91:7c:0f:75:7b:fe:
         fb:3b:83:39:7a:7d:99:36:b4:54:91:d8:d8:9f:3e:9d:40:cf:
         7e:3b:ce:be:ff:3e:c9:82:a1:45:de:37:8c:0d:7e:0a:72:b6:
         fb:31:1f:9e:50:45:ab:e2:a4:af:f8:00:bf:c9:f0:c8:43:b9:
         d0:c0:e0:fa
-----BEGIN CERTIFICATE-----
MIIEIjCCAwqgAwIBAgIEEAAA0TANBgkqhkiG9w0BAQsFADBEMQswCQYDVQQGEwJE
RTEPMA0GA1UECAwGSGVzc2VuMRQwEgYDVQQKDAtwcml2YWN5aWRlYTEOMAwGA1UE
AwwFQ0EwMDEwHhcNMTkwMTExMTIwNDU3WhcNMjAwMTExMTIwNDU3WjBQMQ8wDQYD
VQQLDAZyZWFsbTExEjAQBgNVBAMMCWNvcm5lbGl1czEpMCcGCSqGSIb3DQEJARYa
dXNlckBsb2NhbGhvc3QubG9jYWxkb21haW4wggEiMA0GCSqGSIb3DQEBAQUAA4IB
DwAwggEKAoIBAQDK+TCUaGsuRjZ3NCs/2WZczIULbpBkwwmmD9SyHTG2JVrRdyLZ
CwuwOypfNTF9nMJBV5XS/722blU4Dku0UMZkSFQCjZCoOUt3audH6PsaijOdqv7c
E3w1/99qqnYUCnUBga2qO3tqYFqROgm7O2E+Vnl6W+hk275utsU/q0e2oXx2AnZO
geRhdhfRgXx/abPVlLqhZ6xJRPjiSJhbFEEBG29hCxPIGb5putL/1/XzlXVcOj7E
U8axjVKc1+bK3ieGGi2RhVS3We0OSXYFlBcEegZgToEDZEmHUizd79L2n8oRkiXx
6WNnuSCqDSwz72WfmKNGPUgOkkcCFlP3WW/9AgMBAAGjggEOMIIBCjALBgNVHQ8E
BAMCBaAwCQYDVR0TBAIwADARBglghkgBhvhCAQEEBAMCBkAwMwYJYIZIAYb4QgEN
BCYWJE9wZW5TU0wgR2VuZXJhdGVkIFNlcnZlciBDZXJ0aWZpY2F0ZTAdBgNVHQ4E
FgQUyyQ3pcWm4SYdI352uKUtSm0NSUkwdAYDVR0jBG0wa4AU9KfAzJFGr2TzkfIn
+Miyb4qHMnOhSKRGMEQxCzAJBgNVBAYTAkRFMQ8wDQYDVQQIDAZIZXNzZW4xFDAS
BgNVBAoMC3ByaXZhY3lpZGVhMQ4wDAYDVQQDDAVDQTAwMYIJAPvI66yDzRIHMBMG
A1UdJQQMMAoGCCsGAQUFBwMBMA0GCSqGSIb3DQEBCwUAA4IBAQCURQUjxXtpgH9U
HwpKe4LidEySHmZZoYUpbiXMwPZpAKPU6CSAdiARfDjbgdi+fU6s+tzd1t22Rd1y
iAstnZqDFtix08OVdxyZuUWjk+EG3MrX00/JD70+yT5fyi00sF7A1PDtX+F8JqMf
6Y8BYdrb1KOBUs4kwvRhMxuC40b965O229YR/bW0Y50IkD4+WiO8FMC1f+Suvo+F
rVfFoyX9grVufB3ufjWaZWaSUVcK47jjai8JN3Tixr+GzMcjFECRfA91e/77O4M5
en2ZNrRUkdjYnz6dQM9+O86+/z7JgqFF3jeMDX4Kcrb7MR+eUEWr4qSv+AC/yfDI
Q7nQwOD6
-----END CERTIFICATE-----
