Certificate:
    Data:
        Version: 3 (0x2)
        Serial Number: 268435671 (0x100000d7)
    Signature Algorithm: sha256WithRSAEncryption
        Issuer: C=DE, ST=Hessen, O=privacyidea, CN=CA001
        Validity
            Not Before: Jan  9 18:37:30 2019 GMT
            Not After : Jan  9 18:37:30 2020 GMT
        Subject: C=DE, ST=Hessen, O=privacyidea, CN=requester.localdomain
        Subject Public Key Info:
            Public Key Algorithm: rsaEncryption
                Public-Key: (2048 bit)
                Modulus:
                    00:cd:be:14:4f:fa:ce:01:3f:42:22:1b:1d:9c:af:
                    dd:92:d2:7f:db:6c:b7:3e:39:43:43:6b:13:03:f1:
                    05:f4:07:74:bc:76:69:28:0b:af:19:8e:d7:fc:e3:
                    cd:c6:58:f2:ca:7f:08:6d:53:fc:07:02:44:24:c6:
                    b4:34:4c:8c:04:fe:33:0e:40:e2:20:ba:02:73:5a:
                    f7:f5:4f:63:6e:cc:c6:b6:df:54:1d:37:39:7d:51:
                    36:26:5f:bd:dc:3f:a8:8b:6b:a2:ae:b6:9d:d6:21:
                    e7:df:41:b8:7a:28:2a:68:48:ca:a8:2d:ed:e1:e9:
                    46:5e:5a:72:6d:b4:84:38:87:91:fd:94:11:0b:28:
                    84:c6:c2:2f:2a:fb:01:f9:36:7a:09:75:d1:33:88:
                    3c:73:41:5b:c8:bf:94:89:70:a1:f0:c0:b9:2e:50:
                    53:1e:b1:17:64:69:f4:2d:81:e0:a9:0d:0e:32:e9:
                    ba:55:8a:85:f1:1b:6f:49:79:b4:7f:88:c3:0d:3e:
                    54:88:9b:3d:1f:38:8c:04:f3:ee:6a:63:2b:f5:c6:
                    db:b4:83:aa:c4:78:41:3a:7d:4b:e1:c8:3e:71:ca:
                    1b:61:59:ea:c6:c4:ca:32:5e:c9:e9:bf:12:29:e6:
                    c6:c3:63:fe:a0:55:da:7a:f1:60:98:4d:26:ed:fa:
                    70:2d
                Exponent: 65537 (0x10001)
        X509v3 extensions:
            X509v3 Key Usage: 
                Digital Signature, Key Encipherment
            X509v3 Basic Constraints: 
                CA:FALSE
            Netscape Cert Type: 
                SSL Server
            Netscape Comment: 
                OpenSSL Generated Server Certificate
            X509v3 Subject Key Identifier: 
                53:3F:ED:5D:09:07:B3:65:7B:AB:45:C9:24:5B:09:77:80:0A:96:ED
            X509v3 Authority Key Identifier: 
                keyid:F4:A7:C0:CC:91:46:AF:64:F3:91:F2:27:F8:C8:B2:6F:8A:87:32:73
                DirName:/C=DE/ST=Hessen/O=privacyidea/CN=CA001
                serial:FB:C8:EB:AC:83:CD:12:07

            X509v3 Extended Key Usage: 
                TLS Web Server Authentication
    Signature Algorithm: sha256WithRSAEncryption
         59:2d:67:2c:38:c5:db:5a:43:50:5d:0f:59:d3:c9:57:77:81:
         8c:42:8b:a1:e0:ce:83:13:56:2b:60:7f:ac:aa:ec:b3:4c:bf:
         7b:4d:76:23:0c:25:e5:9d:9f:8b:ec:2f:98:96:49:31:f8:bb:
         fc:6c:67:ea:69:44:0b:f0:e2:7a:04:32:ea:2a:a3:fd:3b:04:
         dc:67:7f:d9:41:61:91:d1:61:23:96:67:24:b4:6d:91:13:23:
         52:47:e1:8e:57:52:a2:8d:07:11:d3:4d:c3:39:27:83:0a:f8:
         58:5a:3b:39:af:ce:17:d0:b7:0d:f3:2c:1e:c0:58:f7:71:49:
         d9:20:44:44:f5:2b:38:8d:a2:f2:4c:0f:14:cc:94:cc:ab:da:
         0a:c4:5a:39:b8:7b:d0:ff:8b:05:f5:cb:b0:0b:cb:2d:2c:ec:
         13:0a:3a:2b:e5:87:3c:52:e9:0c:da:40:cd:f9:63:73:5a:ab:
         8b:54:09:60:11:70:7f:5b:d1:5e:0d:11:df:83:07:e3:4b:42:
         90:e3:f6:1e:8e:37:d8:db:7a:52:69:35:9b:08:68:9f:25:26:
         58:2a:b9:04:be:72:27:08:c5:b8:b0:f3:eb:9d:b5:73:37:42:
         ef:07:bb:f3:46:a1:fa:c3:ed:64:c9:ff:32:de:6f:72:34:f3:
         d7:d4:d3:6d
-----BEGIN CERTIFICATE-----
MIIEJjCCAw6gAwIBAgIEEAAA1zANBgkqhkiG9w0BAQsFADBEMQswCQYDVQQGEwJE
RTEPMA0GA1UECAwGSGVzc2VuMRQwEgYDVQQKDAtwcml2YWN5aWRlYTEOMAwGA1UE
AwwFQ0EwMDEwHhcNMTkwMTA5MTgzNzMwWhcNMjAwMTA5MTgzNzMwWjBUMQswCQYD
VQQGEwJERTEPMA0GA1UECAwGSGVzc2VuMRQwEgYDVQQKDAtwcml2YWN5aWRlYTEe
MBwGA1UEAwwVcmVxdWVzdGVyLmxvY2FsZG9tYWluMIIBIjANBgkqhkiG9w0BAQEF
AAOCAQ8AMIIBCgKCAQEAzb4UT/rOAT9CIhsdnK/dktJ/22y3PjlDQ2sTA/EF9Ad0
vHZpKAuvGY7X/OPNxljyyn8IbVP8BwJEJMa0NEyMBP4zDkDiILoCc1r39U9jbszG
tt9UHTc5fVE2Jl+93D+oi2uirrad1iHn30G4eigqaEjKqC3t4elGXlpybbSEOIeR
/ZQRCyiExsIvKvsB+TZ6CXXRM4g8c0FbyL+UiXCh8MC5LlBTHrEXZGn0LYHgqQ0O
Mum6VYqF8RtvSXm0f4jDDT5UiJs9HziMBPPuamMr9cbbtIOqxHhBOn1L4cg+ccob
YVnqxsTKMl7J6b8SKebGw2P+oFXaevFgmE0m7fpwLQIDAQABo4IBDjCCAQowCwYD
VR0PBAQDAgWgMAkGA1UdEwQCMAAwEQYJYIZIAYb4QgEBBAQDAgZAMDMGCWCGSAGG
+EIBDQQmFiRPcGVuU1NMIEdlbmVyYXRlZCBTZXJ2ZXIgQ2VydGlmaWNhdGUwHQYD
VR0OBBYEFFM/7V0JB7Nle6tFySRbCXeACpbtMHQGA1UdIwRtMGuAFPSnwMyRRq9k
85HyJ/jIsm+KhzJzoUikRjBEMQswCQYDVQQGEwJERTEPMA0GA1UECAwGSGVzc2Vu
MRQwEgYDVQQKDAtwcml2YWN5aWRlYTEOMAwGA1UEAwwFQ0EwMDGCCQD7yOusg80S
BzATBgNVHSUEDDAKBggrBgEFBQcDATANBgkqhkiG9w0BAQsFAAOCAQEAWS1nLDjF
21pDUF0PWdPJV3eBjEKLoeDOgxNWK2B/rKrss0y/e012Iwwl5Z2fi+wvmJZJMfi7
/Gxn6mlEC/DiegQy6iqj/TsE3Gd/2UFhkdFhI5ZnJLRtkRMjUkfhjldSoo0HEdNN
wzkngwr4WFo7Oa/OF9C3DfMsHsBY93FJ2SBERPUrOI2i8kwPFMyUzKvaCsRaObh7
0P+LBfXLsAvLLSzsEwo6K+WHPFLpDNpAzfljc1qri1QJYBFwf1vRXg0R34MH40tC
kOP2Ho432Nt6Umk1mwhonyUmWCq5BL5yJwjFuLDz6521czdC7we780ah+sPtZMn/
Mt5vcjTz19TTbQ==
-----END CERTIFICATE-----
