Certificate:
    Data:
        Version: 3 (0x2)
        Serial Number: 268435673 (0x100000d9)
    Signature Algorithm: sha256WithRSAEncryption
        Issuer: C=DE, ST=Hessen, O=privacyidea, CN=CA001
        Validity
            Not Before: Jan  9 18:39:34 2019 GMT
            Not After : Jan  9 18:39:34 2020 GMT
        Subject: C=DE, ST=Hessen, O=privacyidea, CN=usercert
        Subject Public Key Info:
            Public Key Algorithm: rsaEncryption
                Public-Key: (2048 bit)
                Modulus:
                    00:dc:2f:d1:5f:29:97:d4:7c:c3:53:c8:30:bd:4b:
                    67:70:2c:24:6b:b8:5e:eb:21:7a:48:12:56:7c:81:
                    5c:48:75:b6:68:eb:f6:f2:98:4e:50:51:d1:7f:6c:
                    73:f3:0a:a7:ae:be:48:5e:e5:d6:e1:d9:2a:7c:32:
                    6e:4e:fd:08:f6:5a:54:49:23:73:c3:b9:07:18:d1:
                    ef:b3:ac:f8:8a:dc:94:96:a4:90:3a:8e:74:df:e6:
                    0d:37:1b:bd:5b:b7:25:1a:56:39:da:6f:91:aa:5e:
                    1c:74:f3:f9:7c:14:01:83:12:65:76:c7:bb:fe:36:
                    5b:95:e9:72:65:83:ed:3e:98:30:71:fa:87:dd:a3:
                    36:5a:30:03:2e:26:e0:61:d1:bf:02:3f:b6:06:1f:
                    4a:89:28:1c:5c:a2:ff:4e:be:94:e6:8c:e0:da:82:
                    f1:9d:29:32:48:30:73:b4:04:f6:42:1e:be:f7:e2:
                    32:32:27:3c:9d:89:2f:70:3e:85:9a:6f:5c:c5:09:
                    c0:8c:32:2f:72:22:c9:d2:95:1f:b6:ac:72:60:72:
                    b7:82:4d:6b:ce:5b:e3:00:d0:d2:2f:58:c6:e0:10:
                    e5:51:ca:4d:3b:2e:e6:7e:ab:84:d6:56:f1:93:35:
                    a0:93:64:26:81:75:2f:91:b5:16:06:38:0b:db:cc:
                    2d:07
                Exponent: 65537 (0x10001)
        X509v3 extensions:
            X509v3 Key Usage: 
                Digital Signature, Key Encipherment
            X509v3 Basic Constraints: 
                CA:FALSE
            Netscape Cert Type: 
                SSL Server
            Netscape Comment: 
                OpenSSL Generated Server Certificate
            X509v3 Subject Key Identifier: 
                FC:14:D1:F0:4B:8D:00:90:F2:F5:B8:71:9E:4E:97:C3:92:54:AD:0B
            X509v3 Authority Key Identifier: 
                keyid:F4:A7:C0:CC:91:46:AF:64:F3:91:F2:27:F8:C8:B2:6F:8A:87:32:73
                DirName:/C=DE/ST=Hessen/O=privacyidea/CN=CA001
                serial:FB:C8:EB:AC:83:CD:12:07

            X509v3 Extended Key Usage: 
                TLS Web Server Authentication
    Signature Algorithm: sha256WithRSAEncryption
         a5:aa:55:a1:34:08:66:20:18:1f:a7:da:b7:de:0c:86:67:28:
         fb:a8:43:ed:78:ac:6c:e5:f3:30:47:bb:6f:14:00:1f:cd:94:
         3c:8b:1c:8a:3d:23:99:6a:71:07:5b:4e:5a:92:13:4f:15:c3:
         51:17:8a:bf:13:c6:1c:dd:0a:df:7e:de:65:76:a2:ca:97:a5:
         e3:1a:a5:f5:14:98:6f:71:6f:00:34:2a:bc:df:8e:a2:a0:cb:
         18:35:92:d9:fc:01:a5:4a:da:4f:01:63:7e:b6:6f:51:8e:81:
         2d:b7:cb:a9:89:a2:6a:47:4c:45:91:c8:0d:4a:c0:aa:3d:1d:
         18:16:4e:b9:6e:10:02:d9:1e:de:ed:ee:de:19:53:4d:fe:f1:
         d5:d0:4a:37:b6:60:62:a5:e7:b5:54:46:e3:f7:b6:29:f3:12:
         39:6b:c4:20:5b:6b:af:d9:34:ab:f4:d7:1f:0f:76:c7:34:d3:
         e0:d6:a0:a7:c3:58:01:ef:63:fd:cd:46:0b:cc:56:e3:15:5f:
         65:84:c1:5e:87:38:61:64:da:fc:7d:d2:11:d1:c0:d1:72:1a:
         d7:3a:7f:08:3f:4a:90:34:9d:f4:9a:1c:dd:a4:24:2c:be:e7:
         50:e2:46:94:7a:09:41:1f:27:1a:ea:f3:86:fe:ed:6c:0a:3f:
         42:e1:b1:b3
-----BEGIN CERTIFICATE-----
MIIEGTCCAwGgAwIBAgIEEAAA2TANBgkqhkiG9w0BAQsFADBEMQswCQYDVQQGEwJE
RTEPMA0GA1UECAwGSGVzc2VuMRQwEgYDVQQKDAtwcml2YWN5aWRlYTEOMAwGA1UE
AwwFQ0EwMDEwHhcNMTkwMTA5MTgzOTM0WhcNMjAwMTA5MTgzOTM0WjBHMQswCQYD
VQQGEwJERTEPMA0GA1UECAwGSGVzc2VuMRQwEgYDVQQKDAtwcml2YWN5aWRlYTER
MA8GA1UEAwwIdXNlcmNlcnQwggEiMA0GCSqGSIb3DQEBAQUAA4IBDwAwggEKAoIB
AQDcL9FfKZfUfMNTyDC9S2dwLCRruF7rIXpIElZ8gVxIdbZo6/bymE5QUdF/bHPz
Cqeuvkhe5dbh2Sp8Mm5O/Qj2WlRJI3PDuQcY0e+zrPiK3JSWpJA6jnTf5g03G71b
tyUaVjnab5GqXhx08/l8FAGDEmV2x7v+NluV6XJlg+0+mDBx+ofdozZaMAMuJuBh
0b8CP7YGH0qJKBxcov9OvpTmjODagvGdKTJIMHO0BPZCHr734jIyJzydiS9wPoWa
b1zFCcCMMi9yIsnSlR+2rHJgcreCTWvOW+MA0NIvWMbgEOVRyk07LuZ+q4TWVvGT
NaCTZCaBdS+RtRYGOAvbzC0HAgMBAAGjggEOMIIBCjALBgNVHQ8EBAMCBaAwCQYD
VR0TBAIwADARBglghkgBhvhCAQEEBAMCBkAwMwYJYIZIAYb4QgENBCYWJE9wZW5T
U0wgR2VuZXJhdGVkIFNlcnZlciBDZXJ0aWZpY2F0ZTAdBgNVHQ4EFgQU/BTR8EuN
AJDy9bhxnk6Xw5JUrQswdAYDVR0jBG0wa4AU9KfAzJFGr2TzkfIn+Miyb4qHMnOh
SKRGMEQxCzAJBgNVBAYTAkRFMQ8wDQYDVQQIDAZIZXNzZW4xFDASBgNVBAoMC3By
aXZhY3lpZGVhMQ4wDAYDVQQDDAVDQTAwMYIJAPvI66yDzRIHMBMGA1UdJQQMMAoG
CCsGAQUFBwMBMA0GCSqGSIb3DQEBCwUAA4IBAQClqlWhNAhmIBgfp9q33gyGZyj7
qEPteKxs5fMwR7tvFAAfzZQ8ixyKPSOZanEHW05akhNPFcNRF4q/E8Yc3Qrfft5l
dqLKl6XjGqX1FJhvcW8ANCq8346ioMsYNZLZ/AGlStpPAWN+tm9RjoEtt8upiaJq
R0xFkcgNSsCqPR0YFk65bhAC2R7e7e7eGVNN/vHV0Eo3tmBipee1VEbj97Yp8xI5
a8QgW2uv2TSr9NcfD3bHNNPg1qCnw1gB72P9zUYLzFbjFV9lhMFehzhhZNr8fdIR
0cDRchrXOn8IP0qQNJ30mhzdpCQsvudQ4kaUeglBHyca6vOG/u1sCj9C4bGz
-----END CERTIFICATE-----
