Certificate:
    Data:
        Version: 3 (0x2)
        Serial Number: 268435664 (0x100000d0)
    Signature Algorithm: sha256WithRSAEncryption
        Issuer: C=DE, ST=Hessen, O=privacyidea, CN=CA001
        Validity
            Not Before: Jan 11 12:04:56 2019 GMT
            Not After : Jan 11 12:04:56 2020 GMT
        Subject: C=DE, ST=Hessen, O=privacyidea, CN=requester.localdomain
        Subject Public Key Info:
            Public Key Algorithm: rsaEncryption
                Public-Key: (2048 bit)
                Modulus:
                    00:cd:be:14:4f:fa:ce:01:3f:42:22:1b:1d:9c:af:
                    dd:92:d2:7f:db:6c:b7:3e:39:43:43:6b:13:03:f1:
                    05:f4:07:74:bc:76:69:28:0b:af:19:8e:d7:fc:e3:
                    cd:c6:58:f2:ca:7f:08:6d:53:fc:07:02:44:24:c6:
                    b4:34:4c:8c:04:fe:33:0e:40:e2:20:ba:02:73:5a:
                    f7:f5:4f:63:6e:cc:c6:b6:df:54:1d:37:39:7d:51:
                    36:26:5f:bd:dc:3f:a8:8b:6b:a2:ae:b6:9d:d6:21:
                    e7:df:41:b8:7a:28:2a:68:48:ca:a8:2d:ed:e1:e9:
                    46:5e:5a:72:6d:b4:84:38:87:91:fd:94:11:0b:28:
                    84:c6:c2:2f:2a:fb:01:f9:36:7a:09:75:d1:33:88:
                    3c:73:41:5b:c8:bf:94:89:70:a1:f0:c0:b9:2e:50:
                    53:1e:b1:17:64:69:f4:2d:81:e0:a9:0d:0e:32:e9:
                    ba:55:8a:85:f1:1b:6f:49:79:b4:7f:88:c3:0d:3e:
                    54:88:9b:3d:1f:38:8c:04:f3:ee:6a:63:2b:f5:c6:
                    db:b4:83:aa:c4:78:41:3a:7d:4b:e1:c8:3e:71:ca:
                    1b:61:59:ea:c6:c4:ca:32:5e:c9:e9:bf:12:29:e6:
                    c6:c3:63:fe:a0:55:da:7a:f1:60:98:4d:26:ed:fa:
                    70:2d
                Exponent: 65537 (0x10001)
        X509v3 extensions:
            X509v3 Key Usage: 
                Digital Signature, Key Encipherment
            X509v3 Basic Constraints: 
                CA:FALSE
            Netscape Cert Type: 
                SSL Server
            Netscape Comment: 
                OpenSSL Generated Server Certificate
            X509v3 Subject Key Identifier: 
                53:3F:ED:5D:09:07:B3:65:7B:AB:45:C9:24:5B:09:77:80:0A:96:ED
            X509v3 Authority Key Identifier: 
                keyid:F4:A7:C0:CC:91:46:AF:64:F3:91:F2:27:F8:C8:B2:6F:8A:87:32:73
                DirName:/C=DE/ST=Hessen/O=privacyidea/CN=CA001
                serial:FB:C8:EB:AC:83:CD:12:07

            X509v3 Extended Key Usage: 
                TLS Web Server Authentication
    Signature Algorithm: sha256WithRSAEncryption
         8c:b0:e0:0f:b6:fb:40:fc:03:d8:3c:1f:83:31:46:c6:f2:64:
         52:15:19:13:73:85:0a:e4:06:35:a3:dc:cf:8a:84:c7:0e:9e:
         20:a2:b0:80:e5:73:bc:b5:f0:09:5b:b8:79:e3:26:58:0c:e5:
         b8:cd:98:13:25:fa:74:bd:91:3f:57:32:86:8b:9a:3b:a2:25:
         22:b8:86:2e:14:0c:5c:be:9e:76:51:c1:91:6e:ba:ed:ae:3e:
         07:e1:15:11:30:3a:da:44:e2:6c:2e:1a:9b:5a:ae:74:d0:a1:
         e4:19:1c:89:f3:ab:c7:c5:4d:63:a4:40:8c:9e:2a:f5:44:74:
         c7:22:c2:3a:e1:07:07:5d:e1:81:b4:f5:5f:cf:b1:5e:0a:3c:
         b0:af:82:c0:4b:8e:18:84:db:d9:b8:3b:9c:2e:01:2a:58:41:
         2a:91:da:d2:cc:ff:49:69:0e:ce:fd:9c:c8:1b:6f:3d:3c:66:
         53:4d:12:b9:c0:0b:0b:4c:e5:0c:d1:e3:4d:74:02:1b:8e:da:
         f6:0f:a5:e2:4f:65:f9:c9:fd:07:f1:1a:41:80:dd:84:a7:e6:
         f9:4f:c5:d3:54:94:32:3e:91:78:17:43:78:5c:dc:82:9c:1a:
         c0:33:7a:e4:37:58:2b:49:49:c3:f3:7b:60:c2:be:a4:e0:d0:
         d9:79:6c:de
-----BEGIN CERTIFICATE-----
MIIEJjCCAw6gAwIBAgIEEAAA0DANBgkqhkiG9w0BAQsFADBEMQswCQYDVQQGEwJE
RTEPMA0GA1UECAwGSGVzc2VuMRQwEgYDVQQKDAtwcml2YWN5aWRlYTEOMAwGA1UE
AwwFQ0EwMDEwHhcNMTkwMTExMTIwNDU2WhcNMjAwMTExMTIwNDU2WjBUMQswCQYD
VQQGEwJERTEPMA0GA1UECAwGSGVzc2VuMRQwEgYDVQQKDAtwcml2YWN5aWRlYTEe
MBwGA1UEAwwVcmVxdWVzdGVyLmxvY2FsZG9tYWluMIIBIjANBgkqhkiG9w0BAQEF
AAOCAQ8AMIIBCgKCAQEAzb4UT/rOAT9CIhsdnK/dktJ/22y3PjlDQ2sTA/EF9Ad0
vHZpKAuvGY7X/OPNxljyyn8IbVP8BwJEJMa0NEyMBP4zDkDiILoCc1r39U9jbszG
tt9UHTc5fVE2Jl+93D+oi2uirrad1iHn30G4eigqaEjKqC3t4elGXlpybbSEOIeR
/ZQRCyiExsIvKvsB+TZ6CXXRM4g8c0FbyL+UiXCh8MC5LlBTHrEXZGn0LYHgqQ0O
Mum6VYqF8RtvSXm0f4jDDT5UiJs9HziMBPPuamMr9cbbtIOqxHhBOn1L4cg+ccob
YVnqxsTKMl7J6b8SKebGw2P+oFXaevFgmE0m7fpwLQIDAQABo4IBDjCCAQowCwYD
VR0PBAQDAgWgMAkGA1UdEwQCMAAwEQYJYIZIAYb4QgEBBAQDAgZAMDMGCWCGSAGG
+EIBDQQmFiRPcGVuU1NMIEdlbmVyYXRlZCBTZXJ2ZXIgQ2VydGlmaWNhdGUwHQYD
VR0OBBYEFFM/7V0JB7Nle6tFySRbCXeACpbtMHQGA1UdIwRtMGuAFPSnwMyRRq9k
85HyJ/jIsm+KhzJzoUikRjBEMQswCQYDVQQGEwJERTEPMA0GA1UECAwGSGVzc2Vu
MRQwEgYDVQQKDAtwcml2YWN5aWRlYTEOMAwGA1UEAwwFQ0EwMDGCCQD7yOusg80S
BzATBgNVHSUEDDAKBggrBgEFBQcDATANBgkqhkiG9w0BAQsFAAOCAQEAjLDgD7b7
QPwD2DwfgzFGxvJkUhUZE3OFCuQGNaPcz4qExw6eIKKwgOVzvLXwCVu4eeMmWAzl
uM2YEyX6dL2RP1cyhouaO6IlIriGLhQMXL6edlHBkW667a4+B+EVETA62kTibC4a
m1qudNCh5BkcifOrx8VNY6RAjJ4q9UR0xyLCOuEHB13hgbT1X8+xXgo8sK+CwEuO
GITb2bg7nC4BKlhBKpHa0sz/SWkOzv2cyBtvPTxmU00SucALC0zlDNHjTXQCG47a
9g+l4k9l+cn9B/EaQYDdhKfm+U/F01SUMj6ReBdDeFzcgpwawDN65DdYK0lJw/N7
YMK+pODQ2Xls3g==
-----END CERTIFICATE-----
