Certificate:
    Data:
        Version: 3 (0x2)
        Serial Number: 268435667 (0x100000d3)
    Signature Algorithm: sha256WithRSAEncryption
        Issuer: C=DE, ST=Hessen, O=privacyidea, CN=CA001
        Validity
            Not Before: Jan  9 18:29:51 2019 GMT
            Not After : Jan  9 18:29:51 2020 GMT
        Subject: CN=Steve Test/emailAddress=steve@openssl.org
        Subject Public Key Info:
            Public Key Algorithm: rsaEncryption
                Public-Key: (2048 bit)
                Modulus:
                    00:d2:81:89:20:51:48:0f:73:f4:11:32:24:d5:1f:
                    1c:fd:5c:f5:b6:e6:c5:f0:52:81:dc:d2:af:66:4a:
                    7c:93:31:61:5c:af:d1:6d:06:70:03:60:7c:72:0c:
                    88:dd:49:cd:9e:02:6c:d2:5a:d7:53:0f:f3:da:be:
                    69:64:b5:0f:0c:00:e3:b3:50:47:a3:b3:9b:ba:13:
                    50:d6:58:5a:4b:ab:39:e0:11:ca:0a:27:67:03:78:
                    22:66:6d:92:1e:1b:5c:49:ae:e6:6b:d1:8e:3b:9d:
                    06:d3:c6:ac:4d:53:43:10:ab:e8:96:c1:87:82:97:
                    99:8f:20:d3:99:12:37:31:84:e1:8a:ff:29:03:5f:
                    22:90:3e:7f:9b:e0:20:c1:ad:dc:ae:4c:39:1a:31:
                    96:17:02:8c:b2:d9:b4:0d:20:12:9b:7d:86:54:fd:
                    33:fd:c1:2a:62:46:f8:60:96:cf:6e:01:6f:22:df:
                    13:47:e7:97:ec:05:72:23:a3:62:f8:fa:ef:ac:9c:
                    72:f0:37:cb:2f:37:cf:90:a8:27:51:86:c6:d7:78:
                    08:8f:7e:25:a2:15:70:a2:fb:1c:b6:15:5e:a0:97:
                    8b:81:4c:09:28:8a:27:3b:94:bc:71:db:5b:71:37:
                    9a:2b:16:e0:6f:b5:c9:f5:4b:4f:20:ba:65:cf:af:
                    ad:ad
                Exponent: 65537 (0x10001)
        X509v3 extensions:
            X509v3 Key Usage: 
                Digital Signature, Key Encipherment
            X509v3 Basic Constraints: 
                CA:FALSE
            Netscape Cert Type: 
                SSL Server
            Netscape Comment: 
                OpenSSL Generated Server Certificate
            X509v3 Subject Key Identifier: 
                E5:25:6D:3E:AF:0D:DD:3F:4C:F2:45:19:39:D5:14:DB:7E:9C:C0:AD
            X509v3 Authority Key Identifier: 
                keyid:F4:A7:C0:CC:91:46:AF:64:F3:91:F2:27:F8:C8:B2:6F:8A:87:32:73
                DirName:/C=DE/ST=Hessen/O=privacyidea/CN=CA001
                serial:FB:C8:EB:AC:83:CD:12:07

            X509v3 Extended Key Usage: 
                TLS Web Server Authentication
    Signature Algorithm: sha256WithRSAEncryption
         04:d6:02:0e:c1:de:c2:e2:46:03:3c:04:0b:81:f7:61:aa:e6:
         88:1c:60:57:02:a0:d9:70:49:f0:5c:ae:bd:d2:87:c9:b0:0d:
         f6:0b:2c:8b:48:f3:bd:17:8c:15:0b:22:f8:e9:79:58:fd:68:
         b2:01:75:96:41:49:cf:ad:35:ae:81:1f:a5:13:ac:bd:91:32:
         fa:31:8e:62:1f:72:b3:14:9c:87:6a:6a:73:08:13:43:1d:3c:
         5a:07:0b:2a:0c:90:ee:8f:9c:25:b0:05:35:9d:0e:70:59:fb:
         0c:31:b0:13:3d:ee:cf:31:7b:58:d6:d3:77:17:87:62:b8:0a:
         c4:6d:92:02:8a:a2:1b:54:eb:07:d9:08:ff:42:87:66:61:ce:
         f1:97:d1:2f:52:a5:8d:59:17:3b:88:08:90:d2:57:45:ad:bf:
         8d:30:c1:a3:cd:39:3e:b3:af:4e:8f:0b:7e:5e:da:41:62:53:
         2c:95:df:aa:eb:e0:3a:a5:12:20:c0:5f:8f:bd:73:89:59:de:
         7b:d5:b2:16:ae:44:3f:86:28:76:20:95:f3:fc:5e:b0:06:e2:
         b8:c6:8e:3a:96:c6:22:e9:86:80:bd:93:35:1f:13:8f:c2:16:
         ba:fe:be:a4:03:da:db:80:99:ce:3c:94:37:6d:26:54:88:68:
         b3:c2:dd:e5
-----BEGIN CERTIFICATE-----
MIIECTCCAvGgAwIBAgIEEAAA0zANBgkqhkiG9w0BAQsFADBEMQswCQYDVQQGEwJE
RTEPMA0GA1UECAwGSGVzc2VuMRQwEgYDVQQKDAtwcml2YWN5aWRlYTEOMAwGA1UE
AwwFQ0EwMDEwHhcNMTkwMTA5MTgyOTUxWhcNMjAwMTA5MTgyOTUxWjA3MRMwEQYD
VQQDDApTdGV2ZSBUZXN0MSAwHgYJKoZIhvcNAQkBFhFzdGV2ZUBvcGVuc3NsLm9y
ZzCCASIwDQYJKoZIhvcNAQEBBQADggEPADCCAQoCggEBANKBiSBRSA9z9BEyJNUf
HP1c9bbmxfBSgdzSr2ZKfJMxYVyv0W0GcANgfHIMiN1JzZ4CbNJa11MP89q+aWS1
DwwA47NQR6Ozm7oTUNZYWkurOeARygonZwN4ImZtkh4bXEmu5mvRjjudBtPGrE1T
QxCr6JbBh4KXmY8g05kSNzGE4Yr/KQNfIpA+f5vgIMGt3K5MORoxlhcCjLLZtA0g
Ept9hlT9M/3BKmJG+GCWz24BbyLfE0fnl+wFciOjYvj676yccvA3yy83z5CoJ1GG
xtd4CI9+JaIVcKL7HLYVXqCXi4FMCSiKJzuUvHHbW3E3misW4G+1yfVLTyC6Zc+v
ra0CAwEAAaOCAQ4wggEKMAsGA1UdDwQEAwIFoDAJBgNVHRMEAjAAMBEGCWCGSAGG
+EIBAQQEAwIGQDAzBglghkgBhvhCAQ0EJhYkT3BlblNTTCBHZW5lcmF0ZWQgU2Vy
dmVyIENlcnRpZmljYXRlMB0GA1UdDgQWBBTlJW0+rw3dP0zyRRk51RTbfpzArTB0
BgNVHSMEbTBrgBT0p8DMkUavZPOR8if4yLJviocyc6FIpEYwRDELMAkGA1UEBhMC
REUxDzANBgNVBAgMBkhlc3NlbjEUMBIGA1UECgwLcHJpdmFjeWlkZWExDjAMBgNV
BAMMBUNBMDAxggkA+8jrrIPNEgcwEwYDVR0lBAwwCgYIKwYBBQUHAwEwDQYJKoZI
hvcNAQELBQADggEBAATWAg7B3sLiRgM8BAuB92Gq5ogcYFcCoNlwSfBcrr3Sh8mw
DfYLLItI870XjBULIvjpeVj9aLIBdZZBSc+tNa6BH6UTrL2RMvoxjmIfcrMUnIdq
anMIE0MdPFoHCyoMkO6PnCWwBTWdDnBZ+wwxsBM97s8xe1jW03cXh2K4CsRtkgKK
ohtU6wfZCP9Ch2ZhzvGX0S9SpY1ZFzuICJDSV0Wtv40wwaPNOT6zr06PC35e2kFi
UyyV36rr4DqlEiDAX4+9c4lZ3nvVshauRD+GKHYglfP8XrAG4rjGjjqWxiLphoC9
kzUfE4/CFrr+vqQD2tuAmc48lDdtJlSIaLPC3eU=
-----END CERTIFICATE-----
