Certificate:
    Data:
        Version: 3 (0x2)
        Serial Number: 268435678 (0x100000de)
    Signature Algorithm: sha256WithRSAEncryption
        Issuer: C=DE, ST=Hessen, O=privacyidea, CN=CA001
        Validity
            Not Before: Jan  9 18:51:09 2019 GMT
            Not After : Jan  9 18:51:09 2020 GMT
        Subject: CN=selfservice,CN=user,O=realm1/emailAddress=meine
        Subject Public Key Info:
            Public Key Algorithm: rsaEncryption
                Public-Key: (2048 bit)
                Modulus:
                    00:cf:3c:d4:33:0e:12:c4:e6:da:cd:b6:56:a1:1c:
                    26:bb:26:1c:8a:4a:73:a8:58:8a:b6:1e:b3:8b:99:
                    d2:1d:07:c2:92:89:79:c0:69:d8:c8:df:28:61:98:
                    1e:b3:fe:ae:2b:bd:78:a9:f7:6e:47:dc:a3:a0:16:
                    8c:85:02:c1:4e:92:fd:72:6e:f0:c8:03:29:9b:b8:
                    00:6e:c0:83:95:c8:34:20:36:9c:b3:e5:e4:e6:76:
                    73:a3:1a:ad:40:96:e0:53:54:00:ec:76:79:9a:c6:
                    0d:7e:b6:bd:29:ec:83:f3:cb:89:a4:cb:6c:00:ba:
                    0c:c5:78:0f:ff:69:b8:94:f4:04:70:43:3f:d8:9e:
                    d7:a7:fb:5d:ce:75:8e:da:e7:c4:07:b1:9d:de:6f:
                    88:4b:b6:4d:9a:cf:f9:bc:fa:9f:cd:32:6d:f6:3a:
                    0b:0d:23:42:78:ec:97:42:bf:0e:4d:60:56:e1:d3:
                    02:f2:19:cb:84:57:90:e5:70:a1:a2:83:35:86:e2:
                    da:86:9f:f9:8a:c4:79:b3:52:28:da:cb:bb:34:ca:
                    d3:da:91:4a:cf:8d:76:a2:b2:6b:9b:f9:96:fd:09:
                    2a:da:11:23:4d:f0:cb:d6:b2:b1:0e:12:6c:9a:19:
                    65:98:87:ca:e4:ee:24:ce:44:ac:90:8f:9d:1b:c5:
                    2a:9d
                Exponent: 65537 (0x10001)
        X509v3 extensions:
            X509v3 Key Usage: 
                Digital Signature, Key Encipherment
            X509v3 Basic Constraints: 
                CA:FALSE
            Netscape Cert Type: 
                SSL Server
            Netscape Comment: 
                OpenSSL Generated Server Certificate
            X509v3 Subject Key Identifier: 
                4D:07:90:AD:FF:1D:0D:E7:1A:DD:D6:2E:FA:BA:34:CB:AA:1F:24:C6
            X509v3 Authority Key Identifier: 
                keyid:F4:A7:C0:CC:91:46:AF:64:F3:91:F2:27:F8:C8:B2:6F:8A:87:32:73
                DirName:/C=DE/ST=Hessen/O=privacyidea/CN=CA001
                serial:FB:C8:EB:AC:83:CD:12:07

            X509v3 Extended Key Usage: 
                TLS Web Server Authentication
    Signature Algorithm: sha256WithRSAEncryption
         66:44:30:ea:aa:df:2c:b9:d2:47:2f:d3:95:84:8d:74:c0:e6:
         c6:d2:23:17:c6:70:5f:fa:bc:0a:9a:86:f3:58:98:20:fd:ac:
         e5:a0:c2:dd:cb:e9:cb:a5:48:b9:cb:68:c1:11:b3:81:e6:70:
         ba:0d:7c:7e:11:7c:00:3b:3d:13:08:cc:25:49:ea:a8:49:dc:
         a5:9b:e4:81:3c:ec:c5:a3:20:7a:0e:8f:a0:0e:6c:d8:9e:6a:
         32:56:f7:2d:06:76:11:fd:01:40:df:fc:40:8d:41:0d:ba:46:
         bf:b9:5d:97:2d:cf:6e:89:fa:91:ce:69:a4:3a:15:2d:2b:39:
         59:f8:92:1c:7d:e5:60:c8:f6:51:8d:7c:dd:29:66:55:01:39:
         f5:f0:f7:2e:40:bd:47:28:c9:91:7e:cc:61:de:8a:5d:d6:d9:
         64:5f:38:f5:35:27:fe:aa:65:70:e9:08:bc:e7:24:46:7e:d0:
         52:07:4c:de:a7:f5:29:fe:bc:c0:be:a6:e3:67:b4:99:c2:3c:
         43:33:57:bd:52:9c:79:75:c3:0b:dd:75:f4:20:bc:a3:cf:3d:
         7b:72:3d:cd:2a:79:db:89:04:ee:8b:3f:a3:cd:67:cf:c7:ee:
         84:13:7e:6d:f5:38:a5:39:4e:ba:1b:0f:8c:fb:24:b9:4d:32:
         64:3f:9b:20
-----BEGIN CERTIFICATE-----
MIIEDzCCAvegAwIBAgIEEAAA3jANBgkqhkiG9w0BAQsFADBEMQswCQYDVQQGEwJE
RTEPMA0GA1UECAwGSGVzc2VuMRQwEgYDVQQKDAtwcml2YWN5aWRlYTEOMAwGA1UE
AwwFQ0EwMDEwHhcNMTkwMTA5MTg1MTA5WhcNMjAwMTA5MTg1MTA5WjA9MSUwIwYD
VQQDDBxzZWxmc2VydmljZSxDTj11c2VyLE89cmVhbG0xMRQwEgYJKoZIhvcNAQkB
FgVtZWluZTCCASIwDQYJKoZIhvcNAQEBBQADggEPADCCAQoCggEBAM881DMOEsTm
2s22VqEcJrsmHIpKc6hYirYes4uZ0h0HwpKJecBp2MjfKGGYHrP+riu9eKn3bkfc
o6AWjIUCwU6S/XJu8MgDKZu4AG7Ag5XINCA2nLPl5OZ2c6MarUCW4FNUAOx2eZrG
DX62vSnsg/PLiaTLbAC6DMV4D/9puJT0BHBDP9ie16f7Xc51jtrnxAexnd5viEu2
TZrP+bz6n80ybfY6Cw0jQnjsl0K/Dk1gVuHTAvIZy4RXkOVwoaKDNYbi2oaf+YrE
ebNSKNrLuzTK09qRSs+NdqKya5v5lv0JKtoRI03wy9aysQ4SbJoZZZiHyuTuJM5E
rJCPnRvFKp0CAwEAAaOCAQ4wggEKMAsGA1UdDwQEAwIFoDAJBgNVHRMEAjAAMBEG
CWCGSAGG+EIBAQQEAwIGQDAzBglghkgBhvhCAQ0EJhYkT3BlblNTTCBHZW5lcmF0
ZWQgU2VydmVyIENlcnRpZmljYXRlMB0GA1UdDgQWBBRNB5Ct/x0N5xrd1i76ujTL
qh8kxjB0BgNVHSMEbTBrgBT0p8DMkUavZPOR8if4yLJviocyc6FIpEYwRDELMAkG
A1UEBhMCREUxDzANBgNVBAgMBkhlc3NlbjEUMBIGA1UECgwLcHJpdmFjeWlkZWEx
DjAMBgNVBAMMBUNBMDAxggkA+8jrrIPNEgcwEwYDVR0lBAwwCgYIKwYBBQUHAwEw
DQYJKoZIhvcNAQELBQADggEBAGZEMOqq3yy50kcv05WEjXTA5sbSIxfGcF/6vAqa
hvNYmCD9rOWgwt3L6culSLnLaMERs4HmcLoNfH4RfAA7PRMIzCVJ6qhJ3KWb5IE8
7MWjIHoOj6AObNieajJW9y0GdhH9AUDf/ECNQQ26Rr+5XZctz26J+pHOaaQ6FS0r
OVn4khx95WDI9lGNfN0pZlUBOfXw9y5AvUcoyZF+zGHeil3W2WRfOPU1J/6qZXDp
CLznJEZ+0FIHTN6n9Sn+vMC+puNntJnCPEMzV71SnHl1wwvddfQgvKPPPXtyPc0q
eduJBO6LP6PNZ8/H7oQTfm31OKU5TrobD4z7JLlNMmQ/myA=
-----END CERTIFICATE-----
