Certificate:
    Data:
        Version: 3 (0x2)
        Serial Number: 268435668 (0x100000d4)
    Signature Algorithm: sha256WithRSAEncryption
        Issuer: C=DE, ST=Hessen, O=privacyidea, CN=CA001
        Validity
            Not Before: Jan  9 18:29:52 2019 GMT
            Not After : Jan 28 18:29:52 2021 GMT
        Subject: CN=Steve Test/emailAddress=steve@openssl.org
        Subject Public Key Info:
            Public Key Algorithm: rsaEncryption
                Public-Key: (2048 bit)
                Modulus:
                    00:d2:81:89:20:51:48:0f:73:f4:11:32:24:d5:1f:
                    1c:fd:5c:f5:b6:e6:c5:f0:52:81:dc:d2:af:66:4a:
                    7c:93:31:61:5c:af:d1:6d:06:70:03:60:7c:72:0c:
                    88:dd:49:cd:9e:02:6c:d2:5a:d7:53:0f:f3:da:be:
                    69:64:b5:0f:0c:00:e3:b3:50:47:a3:b3:9b:ba:13:
                    50:d6:58:5a:4b:ab:39:e0:11:ca:0a:27:67:03:78:
                    22:66:6d:92:1e:1b:5c:49:ae:e6:6b:d1:8e:3b:9d:
                    06:d3:c6:ac:4d:53:43:10:ab:e8:96:c1:87:82:97:
                    99:8f:20:d3:99:12:37:31:84:e1:8a:ff:29:03:5f:
                    22:90:3e:7f:9b:e0:20:c1:ad:dc:ae:4c:39:1a:31:
                    96:17:02:8c:b2:d9:b4:0d:20:12:9b:7d:86:54:fd:
                    33:fd:c1:2a:62:46:f8:60:96:cf:6e:01:6f:22:df:
                    13:47:e7:97:ec:05:72:23:a3:62:f8:fa:ef:ac:9c:
                    72:f0:37:cb:2f:37:cf:90:a8:27:51:86:c6:d7:78:
                    08:8f:7e:25:a2:15:70:a2:fb:1c:b6:15:5e:a0:97:
                    8b:81:4c:09:28:8a:27:3b:94:bc:71:db:5b:71:37:
                    9a:2b:16:e0:6f:b5:c9:f5:4b:4f:20:ba:65:cf:af:
                    ad:ad
                Exponent: 65537 (0x10001)
        X509v3 extensions:
            X509v3 Key Usage: 
                Digital Signature, Key Encipherment
            X509v3 Basic Constraints: 
                CA:FALSE
            Netscape Cert Type: 
                SSL Server
            Netscape Comment: 
                OpenSSL Generated Server Certificate
            X509v3 Subject Key Identifier: 
                E5:25:6D:3E:AF:0D:DD:3F:4C:F2:45:19:39:D5:14:DB:7E:9C:C0:AD
            X509v3 Authority Key Identifier: 
                keyid:F4:A7:C0:CC:91:46:AF:64:F3:91:F2:27:F8:C8:B2:6F:8A:87:32:73
                DirName:/C=DE/ST=Hessen/O=privacyidea/CN=CA001
                serial:FB:C8:EB:AC:83:CD:12:07

            X509v3 Extended Key Usage: 
                TLS Web Server Authentication
    Signature Algorithm: sha256WithRSAEncryption
         07:62:13:21:58:9f:5a:23:d8:ea:f6:40:6f:ab:30:e4:a7:c1:
         3b:0f:fd:ca:37:f2:90:e2:27:55:8d:83:2c:15:82:5a:fe:d8:
         67:e5:ca:e9:5b:77:4b:d1:f2:88:a5:29:65:ea:38:fe:0e:86:
         26:27:fa:8a:a9:fc:ab:94:59:be:3f:de:f1:5e:ec:0b:28:9f:
         c0:6f:05:10:2a:8d:c1:0d:1f:e0:e0:be:40:c9:ff:c7:fa:2e:
         70:ac:51:96:be:1f:bd:e1:bf:cf:ec:f1:ae:eb:39:5b:ff:fa:
         17:4d:2c:b6:fe:54:04:c1:75:cc:16:57:52:08:5d:85:49:0e:
         f7:c1:60:91:d0:2d:f5:1b:26:24:76:b0:8c:62:34:15:88:70:
         4a:f8:30:a4:76:4d:d3:7f:75:61:d5:ea:55:3f:ab:49:5a:9e:
         04:95:cc:9c:64:ed:e4:1b:33:92:62:3f:c6:21:28:52:28:7a:
         8b:70:76:39:40:55:51:e7:8d:55:22:cc:60:f9:ba:db:47:e6:
         ef:a3:d4:ef:a8:ac:14:ef:14:a6:07:d3:e4:37:e7:46:71:2f:
         be:9d:1c:a0:83:5a:fd:8d:49:ff:58:cc:6c:ed:fb:2a:ee:a1:
         e9:5f:20:51:df:42:f2:fd:1e:a5:5f:35:cf:a4:05:5a:2b:51:
         9b:7f:1e:6d
-----BEGIN CERTIFICATE-----
MIIECTCCAvGgAwIBAgIEEAAA1DANBgkqhkiG9w0BAQsFADBEMQswCQYDVQQGEwJE
RTEPMA0GA1UECAwGSGVzc2VuMRQwEgYDVQQKDAtwcml2YWN5aWRlYTEOMAwGA1UE
AwwFQ0EwMDEwHhcNMTkwMTA5MTgyOTUyWhcNMjEwMTI4MTgyOTUyWjA3MRMwEQYD
VQQDDApTdGV2ZSBUZXN0MSAwHgYJKoZIhvcNAQkBFhFzdGV2ZUBvcGVuc3NsLm9y
ZzCCASIwDQYJKoZIhvcNAQEBBQADggEPADCCAQoCggEBANKBiSBRSA9z9BEyJNUf
HP1c9bbmxfBSgdzSr2ZKfJMxYVyv0W0GcANgfHIMiN1JzZ4CbNJa11MP89q+aWS1
DwwA47NQR6Ozm7oTUNZYWkurOeARygonZwN4ImZtkh4bXEmu5mvRjjudBtPGrE1T
QxCr6JbBh4KXmY8g05kSNzGE4Yr/KQNfIpA+f5vgIMGt3K5MORoxlhcCjLLZtA0g
Ept9hlT9M/3BKmJG+GCWz24BbyLfE0fnl+wFciOjYvj676yccvA3yy83z5CoJ1GG
xtd4CI9+JaIVcKL7HLYVXqCXi4FMCSiKJzuUvHHbW3E3misW4G+1yfVLTyC6Zc+v
ra0CAwEAAaOCAQ4wggEKMAsGA1UdDwQEAwIFoDAJBgNVHRMEAjAAMBEGCWCGSAGG
+EIBAQQEAwIGQDAzBglghkgBhvhCAQ0EJhYkT3BlblNTTCBHZW5lcmF0ZWQgU2Vy
dmVyIENlcnRpZmljYXRlMB0GA1UdDgQWBBTlJW0+rw3dP0zyRRk51RTbfpzArTB0
BgNVHSMEbTBrgBT0p8DMkUavZPOR8if4yLJviocyc6FIpEYwRDELMAkGA1UEBhMC
REUxDzANBgNVBAgMBkhlc3NlbjEUMBIGA1UECgwLcHJpdmFjeWlkZWExDjAMBgNV
BAMMBUNBMDAxggkA+8jrrIPNEgcwEwYDVR0lBAwwCgYIKwYBBQUHAwEwDQYJKoZI
hvcNAQELBQADggEBAAdiEyFYn1oj2Or2QG+rMOSnwTsP/co38pDiJ1WNgywVglr+
2Gflyulbd0vR8oilKWXqOP4OhiYn+oqp/KuUWb4/3vFe7Ason8BvBRAqjcENH+Dg
vkDJ/8f6LnCsUZa+H73hv8/s8a7rOVv/+hdNLLb+VATBdcwWV1IIXYVJDvfBYJHQ
LfUbJiR2sIxiNBWIcEr4MKR2TdN/dWHV6lU/q0langSVzJxk7eQbM5JiP8YhKFIo
eotwdjlAVVHnjVUizGD5uttH5u+j1O+orBTvFKYH0+Q350ZxL76dHKCDWv2NSf9Y
zGzt+yruoelfIFHfQvL9HqVfNc+kBVorUZt/Hm0=
-----END CERTIFICATE-----
