Certificate:
    Data:
        Version: 3 (0x2)
        Serial Number: 268435666 (0x100000d2)
    Signature Algorithm: sha256WithRSAEncryption
        Issuer: C=DE, ST=Hessen, O=privacyidea, CN=CA001
        Validity
            Not Before: Jan  9 18:29:51 2019 GMT
            Not After : Jan  9 18:29:51 2020 GMT
        Subject: C=DE, ST=Hessen, O=privacyidea, CN=usercert
        Subject Public Key Info:
            Public Key Algorithm: rsaEncryption
                Public-Key: (2048 bit)
                Modulus:
                    00:dc:2f:d1:5f:29:97:d4:7c:c3:53:c8:30:bd:4b:
                    67:70:2c:24:6b:b8:5e:eb:21:7a:48:12:56:7c:81:
                    5c:48:75:b6:68:eb:f6:f2:98:4e:50:51:d1:7f:6c:
                    73:f3:0a:a7:ae:be:48:5e:e5:d6:e1:d9:2a:7c:32:
                    6e:4e:fd:08:f6:5a:54:49:23:73:c3:b9:07:18:d1:
                    ef:b3:ac:f8:8a:dc:94:96:a4:90:3a:8e:74:df:e6:
                    0d:37:1b:bd:5b:b7:25:1a:56:39:da:6f:91:aa:5e:
                    1c:74:f3:f9:7c:14:01:83:12:65:76:c7:bb:fe:36:
                    5b:95:e9:72:65:83:ed:3e:98:30:71:fa:87:dd:a3:
                    36:5a:30:03:2e:26:e0:61:d1:bf:02:3f:b6:06:1f:
                    4a:89:28:1c:5c:a2:ff:4e:be:94:e6:8c:e0:da:82:
                    f1:9d:29:32:48:30:73:b4:04:f6:42:1e:be:f7:e2:
                    32:32:27:3c:9d:89:2f:70:3e:85:9a:6f:5c:c5:09:
                    c0:8c:32:2f:72:22:c9:d2:95:1f:b6:ac:72:60:72:
                    b7:82:4d:6b:ce:5b:e3:00:d0:d2:2f:58:c6:e0:10:
                    e5:51:ca:4d:3b:2e:e6:7e:ab:84:d6:56:f1:93:35:
                    a0:93:64:26:81:75:2f:91:b5:16:06:38:0b:db:cc:
                    2d:07
                Exponent: 65537 (0x10001)
        X509v3 extensions:
            X509v3 Key Usage: 
                Digital Signature, Key Encipherment
            X509v3 Basic Constraints: 
                CA:FALSE
            Netscape Cert Type: 
                SSL Server
            Netscape Comment: 
                OpenSSL Generated Server Certificate
            X509v3 Subject Key Identifier: 
                FC:14:D1:F0:4B:8D:00:90:F2:F5:B8:71:9E:4E:97:C3:92:54:AD:0B
            X509v3 Authority Key Identifier: 
                keyid:F4:A7:C0:CC:91:46:AF:64:F3:91:F2:27:F8:C8:B2:6F:8A:87:32:73
                DirName:/C=DE/ST=Hessen/O=privacyidea/CN=CA001
                serial:FB:C8:EB:AC:83:CD:12:07

            X509v3 Extended Key Usage: 
                TLS Web Server Authentication
    Signature Algorithm: sha256WithRSAEncryption
         b2:9f:ee:23:be:2f:de:57:3a:34:ec:d3:a9:3b:f2:d5:c7:e3:
         fc:47:5c:78:97:6d:36:63:fd:e1:b6:d0:9e:fd:ce:a2:e2:fe:
         c5:39:2b:72:17:be:8f:a6:13:29:d9:5d:09:cf:f2:bf:37:3c:
         52:0b:4a:56:63:aa:36:1d:62:0e:5a:3f:be:0c:99:ee:f3:e9:
         77:07:30:4c:a3:68:c0:06:11:8b:f1:3f:fe:27:74:fe:a7:8d:
         a1:91:96:85:a3:38:7a:c4:0f:2e:76:53:29:90:3e:3f:b6:8e:
         24:b2:7e:4c:00:10:b6:be:e2:a0:d3:8a:e3:d8:c8:f9:3c:0b:
         fa:7a:11:fc:10:00:5f:dc:3b:e2:d0:69:ad:a9:31:a6:ce:7f:
         90:6a:bf:dc:70:d4:96:96:00:e2:61:fa:37:52:d8:ee:18:74:
         60:d6:89:cf:66:c6:01:ea:a6:45:56:65:6b:5d:17:5b:7d:a1:
         08:f9:7c:45:9b:5f:4b:90:be:07:d6:ed:fe:7d:22:e1:29:9d:
         02:f3:bf:f4:6f:85:b7:d0:0e:9a:97:1b:b6:8e:01:b9:44:2a:
         77:06:6e:f0:73:a8:39:52:37:e6:9a:b4:d9:ad:d4:1d:33:05:
         9c:0a:fd:62:ce:09:f9:80:ba:fa:9b:8f:fd:2a:de:ad:36:b7:
         2b:70:47:47
-----BEGIN CERTIFICATE-----
MIIEGTCCAwGgAwIBAgIEEAAA0jANBgkqhkiG9w0BAQsFADBEMQswCQYDVQQGEwJE
RTEPMA0GA1UECAwGSGVzc2VuMRQwEgYDVQQKDAtwcml2YWN5aWRlYTEOMAwGA1UE
AwwFQ0EwMDEwHhcNMTkwMTA5MTgyOTUxWhcNMjAwMTA5MTgyOTUxWjBHMQswCQYD
VQQGEwJERTEPMA0GA1UECAwGSGVzc2VuMRQwEgYDVQQKDAtwcml2YWN5aWRlYTER
MA8GA1UEAwwIdXNlcmNlcnQwggEiMA0GCSqGSIb3DQEBAQUAA4IBDwAwggEKAoIB
AQDcL9FfKZfUfMNTyDC9S2dwLCRruF7rIXpIElZ8gVxIdbZo6/bymE5QUdF/bHPz
Cqeuvkhe5dbh2Sp8Mm5O/Qj2WlRJI3PDuQcY0e+zrPiK3JSWpJA6jnTf5g03G71b
tyUaVjnab5GqXhx08/l8FAGDEmV2x7v+NluV6XJlg+0+mDBx+ofdozZaMAMuJuBh
0b8CP7YGH0qJKBxcov9OvpTmjODagvGdKTJIMHO0BPZCHr734jIyJzydiS9wPoWa
b1zFCcCMMi9yIsnSlR+2rHJgcreCTWvOW+MA0NIvWMbgEOVRyk07LuZ+q4TWVvGT
NaCTZCaBdS+RtRYGOAvbzC0HAgMBAAGjggEOMIIBCjALBgNVHQ8EBAMCBaAwCQYD
VR0TBAIwADARBglghkgBhvhCAQEEBAMCBkAwMwYJYIZIAYb4QgENBCYWJE9wZW5T
U0wgR2VuZXJhdGVkIFNlcnZlciBDZXJ0aWZpY2F0ZTAdBgNVHQ4EFgQU/BTR8EuN
AJDy9bhxnk6Xw5JUrQswdAYDVR0jBG0wa4AU9KfAzJFGr2TzkfIn+Miyb4qHMnOh
SKRGMEQxCzAJBgNVBAYTAkRFMQ8wDQYDVQQIDAZIZXNzZW4xFDASBgNVBAoMC3By
aXZhY3lpZGVhMQ4wDAYDVQQDDAVDQTAwMYIJAPvI66yDzRIHMBMGA1UdJQQMMAoG
CCsGAQUFBwMBMA0GCSqGSIb3DQEBCwUAA4IBAQCyn+4jvi/eVzo07NOpO/LVx+P8
R1x4l202Y/3httCe/c6i4v7FOStyF76PphMp2V0Jz/K/NzxSC0pWY6o2HWIOWj++
DJnu8+l3BzBMo2jABhGL8T/+J3T+p42hkZaFozh6xA8udlMpkD4/to4ksn5MABC2
vuKg04rj2Mj5PAv6ehH8EABf3Dvi0GmtqTGmzn+Qar/ccNSWlgDiYfo3UtjuGHRg
1onPZsYB6qZFVmVrXRdbfaEI+XxFm19LkL4H1u3+fSLhKZ0C87/0b4W30A6alxu2
jgG5RCp3Bm7wc6g5UjfmmrTZrdQdMwWcCv1izgn5gLr6m4/9Kt6tNrcrcEdH
-----END CERTIFICATE-----
