Certificate:
    Data:
        Version: 3 (0x2)
        Serial Number: 268435672 (0x100000d8)
    Signature Algorithm: sha256WithRSAEncryption
        Issuer: C=DE, ST=Hessen, O=privacyidea, CN=CA001
        Validity
            Not Before: Jan  9 18:39:34 2019 GMT
            Not After : Jan  9 18:39:34 2020 GMT
        Subject: C=DE, ST=Hessen, O=privacyidea, CN=requester.localdomain
        Subject Public Key Info:
            Public Key Algorithm: rsaEncryption
                Public-Key: (2048 bit)
                Modulus:
                    00:cd:be:14:4f:fa:ce:01:3f:42:22:1b:1d:9c:af:
                    dd:92:d2:7f:db:6c:b7:3e:39:43:43:6b:13:03:f1:
                    05:f4:07:74:bc:76:69:28:0b:af:19:8e:d7:fc:e3:
                    cd:c6:58:f2:ca:7f:08:6d:53:fc:07:02:44:24:c6:
                    b4:34:4c:8c:04:fe:33:0e:40:e2:20:ba:02:73:5a:
                    f7:f5:4f:63:6e:cc:c6:b6:df:54:1d:37:39:7d:51:
                    36:26:5f:bd:dc:3f:a8:8b:6b:a2:ae:b6:9d:d6:21:
                    e7:df:41:b8:7a:28:2a:68:48:ca:a8:2d:ed:e1:e9:
                    46:5e:5a:72:6d:b4:84:38:87:91:fd:94:11:0b:28:
                    84:c6:c2:2f:2a:fb:01:f9:36:7a:09:75:d1:33:88:
                    3c:73:41:5b:c8:bf:94:89:70:a1:f0:c0:b9:2e:50:
                    53:1e:b1:17:64:69:f4:2d:81:e0:a9:0d:0e:32:e9:
                    ba:55:8a:85:f1:1b:6f:49:79:b4:7f:88:c3:0d:3e:
                    54:88:9b:3d:1f:38:8c:04:f3:ee:6a:63:2b:f5:c6:
                    db:b4:83:aa:c4:78:41:3a:7d:4b:e1:c8:3e:71:ca:
                    1b:61:59:ea:c6:c4:ca:32:5e:c9:e9:bf:12:29:e6:
                    c6:c3:63:fe:a0:55:da:7a:f1:60:98:4d:26:ed:fa:
                    70:2d
                Exponent: 65537 (0x10001)
        X509v3 extensions:
            X509v3 Key Usage: 
                Digital Signature, Key Encipherment
            X509v3 Basic Constraints: 
                CA:FALSE
            Netscape Cert Type: 
                SSL Server
            Netscape Comment: 
                OpenSSL Generated Server Certificate
            X509v3 Subject Key Identifier: 
                53:3F:ED:5D:09:07:B3:65:7B:AB:45:C9:24:5B:09:77:80:0A:96:ED
            X509v3 Authority Key Identifier: 
                keyid:F4:A7:C0:CC:91:46:AF:64:F3:91:F2:27:F8:C8:B2:6F:8A:87:32:73
                DirName:/C=DE/ST=Hessen/O=privacyidea/CN=CA001
                serial:FB:C8:EB:AC:83:CD:12:07

            X509v3 Extended Key Usage: 
                TLS Web Server Authentication
    Signature Algorithm: sha256WithRSAEncryption
         01:f3:2f:9d:4e:98:b0:8c:9e:d1:03:e3:d4:1b:30:81:f7:bd:
         f1:3b:c1:0f:30:fa:49:f4:ae:90:9d:18:a2:3e:d3:29:7c:42:
         20:49:39:65:dc:38:65:fc:92:6c:24:22:83:55:d6:70:8c:3c:
         63:fc:3c:df:15:6c:5e:54:24:75:89:97:41:81:91:30:3c:1b:
         5e:93:67:f4:24:ca:a3:d3:db:30:ff:97:7c:98:72:e7:7f:50:
         51:c5:4b:6d:e2:a2:70:38:c4:34:30:28:9c:e4:97:b2:5e:d7:
         2c:84:fa:27:4f:87:a0:e0:c7:48:3c:03:8b:28:42:04:18:1f:
         a9:f6:9e:d1:b0:08:77:d0:45:49:38:c5:ff:f6:fe:05:32:46:
         94:f0:2a:e0:f6:4a:0d:5a:65:f9:0a:9e:b5:ca:dc:46:e9:7c:
         5e:93:9c:30:14:97:19:fc:08:7a:a1:9e:f0:96:98:93:1c:dc:
         57:7e:bc:e6:ef:10:89:14:92:49:d9:11:7a:e9:22:85:7f:7a:
         59:ec:6a:47:97:81:8c:aa:f9:d2:ea:4f:6c:86:89:f1:52:2b:
         97:00:28:63:90:a3:fd:1b:bd:33:28:36:78:81:2b:23:d4:82:
         8c:39:31:d5:e7:d6:da:aa:29:e6:16:f9:52:b7:69:71:c8:b1:
         d0:dd:64:6f
-----BEGIN CERTIFICATE-----
MIIEJjCCAw6gAwIBAgIEEAAA2DANBgkqhkiG9w0BAQsFADBEMQswCQYDVQQGEwJE
RTEPMA0GA1UECAwGSGVzc2VuMRQwEgYDVQQKDAtwcml2YWN5aWRlYTEOMAwGA1UE
AwwFQ0EwMDEwHhcNMTkwMTA5MTgzOTM0WhcNMjAwMTA5MTgzOTM0WjBUMQswCQYD
VQQGEwJERTEPMA0GA1UECAwGSGVzc2VuMRQwEgYDVQQKDAtwcml2YWN5aWRlYTEe
MBwGA1UEAwwVcmVxdWVzdGVyLmxvY2FsZG9tYWluMIIBIjANBgkqhkiG9w0BAQEF
AAOCAQ8AMIIBCgKCAQEAzb4UT/rOAT9CIhsdnK/dktJ/22y3PjlDQ2sTA/EF9Ad0
vHZpKAuvGY7X/OPNxljyyn8IbVP8BwJEJMa0NEyMBP4zDkDiILoCc1r39U9jbszG
tt9UHTc5fVE2Jl+93D+oi2uirrad1iHn30G4eigqaEjKqC3t4elGXlpybbSEOIeR
/ZQRCyiExsIvKvsB+TZ6CXXRM4g8c0FbyL+UiXCh8MC5LlBTHrEXZGn0LYHgqQ0O
Mum6VYqF8RtvSXm0f4jDDT5UiJs9HziMBPPuamMr9cbbtIOqxHhBOn1L4cg+ccob
YVnqxsTKMl7J6b8SKebGw2P+oFXaevFgmE0m7fpwLQIDAQABo4IBDjCCAQowCwYD
VR0PBAQDAgWgMAkGA1UdEwQCMAAwEQYJYIZIAYb4QgEBBAQDAgZAMDMGCWCGSAGG
+EIBDQQmFiRPcGVuU1NMIEdlbmVyYXRlZCBTZXJ2ZXIgQ2VydGlmaWNhdGUwHQYD
VR0OBBYEFFM/7V0JB7Nle6tFySRbCXeACpbtMHQGA1UdIwRtMGuAFPSnwMyRRq9k
85HyJ/jIsm+KhzJzoUikRjBEMQswCQYDVQQGEwJERTEPMA0GA1UECAwGSGVzc2Vu
MRQwEgYDVQQKDAtwcml2YWN5aWRlYTEOMAwGA1UEAwwFQ0EwMDGCCQD7yOusg80S
BzATBgNVHSUEDDAKBggrBgEFBQcDATANBgkqhkiG9w0BAQsFAAOCAQEAAfMvnU6Y
sIye0QPj1Bswgfe98TvBDzD6SfSukJ0Yoj7TKXxCIEk5Zdw4ZfySbCQig1XWcIw8
Y/w83xVsXlQkdYmXQYGRMDwbXpNn9CTKo9PbMP+XfJhy539QUcVLbeKicDjENDAo
nOSXsl7XLIT6J0+HoODHSDwDiyhCBBgfqfae0bAId9BFSTjF//b+BTJGlPAq4PZK
DVpl+QqetcrcRul8XpOcMBSXGfwIeqGe8JaYkxzcV3685u8QiRSSSdkReukihX96
WexqR5eBjKr50upPbIaJ8VIrlwAoY5Cj/Ru9Myg2eIErI9SCjDkx1efW2qop5hb5
Urdpccix0N1kbw==
-----END CERTIFICATE-----
