Certificate:
    Data:
        Version: 3 (0x2)
        Serial Number: 268435670 (0x100000d6)
    Signature Algorithm: sha256WithRSAEncryption
        Issuer: C=DE, ST=Hessen, O=privacyidea, CN=CA001
        Validity
            Not Before: Jan  9 18:33:55 2019 GMT
            Not After : Jan  9 18:33:55 2020 GMT
        Subject: OU=realm1, CN=cornelius/emailAddress=user@localhost.localdomain
        Subject Public Key Info:
            Public Key Algorithm: rsaEncryption
                Public-Key: (2048 bit)
                Modulus:
                    00:e1:e3:85:87:d9:1b:0b:bd:2c:4f:58:f2:2b:45:
                    5a:db:d2:04:90:03:b9:57:a8:a6:a8:7c:2d:98:ba:
                    a6:be:98:03:21:a7:a3:18:9c:90:8c:ba:b8:ed:16:
                    1c:b1:33:fd:bc:28:bd:52:93:d2:ef:d6:57:b0:f9:
                    4d:9d:09:cd:b3:fa:05:6c:e5:ab:98:31:85:2e:d7:
                    45:56:97:df:9a:87:48:e9:3f:f6:4f:be:6b:fd:88:
                    22:fc:48:2f:cb:5e:44:9a:dc:21:c9:19:bf:fc:33:
                    7c:e4:44:f1:e8:38:52:ae:15:dd:4e:4d:cb:8e:bd:
                    b0:3e:96:2e:9a:1c:92:12:ac:65:44:da:40:49:25:
                    1e:1c:5f:9e:a1:d2:57:f7:91:d3:31:8a:1d:3b:d5:
                    48:19:85:0b:b0:ae:ad:a7:9f:94:ec:c0:88:6d:37:
                    a6:81:b3:b4:a2:a8:2f:69:27:c3:ed:84:c1:87:9f:
                    d1:c8:2f:7b:c9:6f:13:48:7c:9a:69:39:00:5e:f4:
                    09:8c:6d:8c:49:61:e6:fa:6c:b1:a4:b7:59:93:87:
                    4f:20:31:79:89:01:ca:da:f3:7f:91:dc:6c:4b:74:
                    d0:a7:64:05:6f:08:46:02:69:69:88:c8:20:91:00:
                    f1:17:09:7d:61:35:c0:22:0a:55:cb:a8:7f:8f:01:
                    5a:df
                Exponent: 65537 (0x10001)
        X509v3 extensions:
            X509v3 Key Usage: 
                Digital Signature, Key Encipherment
            X509v3 Basic Constraints: 
                CA:FALSE
            Netscape Cert Type: 
                SSL Server
            Netscape Comment: 
                OpenSSL Generated Server Certificate
            X509v3 Subject Key Identifier: 
                B8:15:D9:72:3C:46:D0:87:31:72:4A:86:48:97:65:33:8A:CF:EE:10
            X509v3 Authority Key Identifier: 
                keyid:F4:A7:C0:CC:91:46:AF:64:F3:91:F2:27:F8:C8:B2:6F:8A:87:32:73
                DirName:/C=DE/ST=Hessen/O=privacyidea/CN=CA001
                serial:FB:C8:EB:AC:83:CD:12:07

            X509v3 Extended Key Usage: 
                TLS Web Server Authentication
    Signature Algorithm: sha256WithRSAEncryption
         61:f5:5f:d8:bc:33:33:46:4b:0f:5b:fd:8a:62:66:60:30:b3:
         81:71:9b:9b:cf:0e:c0:cf:ca:a7:c8:2d:2e:15:32:85:38:71:
         8c:54:95:04:3b:98:c3:bc:25:f6:1f:d7:be:68:5f:d3:b5:1a:
         67:41:aa:59:20:da:1d:6a:72:56:1c:32:b5:ef:6f:6b:c1:fe:
         69:17:49:fa:35:f5:00:e5:0a:57:29:bc:02:53:a5:4e:83:91:
         f9:b5:28:78:1b:00:b3:dd:98:1a:44:08:c8:11:b2:4a:17:44:
         97:ea:16:5a:12:8e:9b:02:52:e6:10:3f:e7:5c:3e:09:e2:fb:
         52:8b:b2:fe:b4:dd:67:78:ff:30:5b:5d:07:04:2d:e6:ed:e7:
         0f:27:4a:e0:d2:6a:a4:06:aa:62:bd:11:43:a8:fb:65:3e:31:
         da:a6:c7:76:82:c6:ce:2a:21:c2:88:1b:7f:72:c1:8e:3c:33:
         63:f5:11:40:bc:ca:db:d2:6b:eb:e9:14:93:a4:f0:db:f6:34:
         89:e7:44:2b:bc:fe:eb:84:16:00:4a:05:5c:94:e7:61:69:50:
         68:5b:e1:06:1e:1c:09:08:2a:1f:42:5c:00:8f:2e:e2:bc:a7:
         2d:1f:ef:8e:e4:8b:db:02:f4:14:7b:70:40:14:81:c6:fa:40:
         a8:6f:4c:e3
-----BEGIN CERTIFICATE-----
MIIEIjCCAwqgAwIBAgIEEAAA1jANBgkqhkiG9w0BAQsFADBEMQswCQYDVQQGEwJE
RTEPMA0GA1UECAwGSGVzc2VuMRQwEgYDVQQKDAtwcml2YWN5aWRlYTEOMAwGA1UE
AwwFQ0EwMDEwHhcNMTkwMTA5MTgzMzU1WhcNMjAwMTA5MTgzMzU1WjBQMQ8wDQYD
VQQLDAZyZWFsbTExEjAQBgNVBAMMCWNvcm5lbGl1czEpMCcGCSqGSIb3DQEJARYa
dXNlckBsb2NhbGhvc3QubG9jYWxkb21haW4wggEiMA0GCSqGSIb3DQEBAQUAA4IB
DwAwggEKAoIBAQDh44WH2RsLvSxPWPIrRVrb0gSQA7lXqKaofC2Yuqa+mAMhp6MY
nJCMurjtFhyxM/28KL1Sk9Lv1lew+U2dCc2z+gVs5auYMYUu10VWl9+ah0jpP/ZP
vmv9iCL8SC/LXkSa3CHJGb/8M3zkRPHoOFKuFd1OTcuOvbA+li6aHJISrGVE2kBJ
JR4cX56h0lf3kdMxih071UgZhQuwrq2nn5TswIhtN6aBs7SiqC9pJ8PthMGHn9HI
L3vJbxNIfJppOQBe9AmMbYxJYeb6bLGkt1mTh08gMXmJAcra83+R3GxLdNCnZAVv
CEYCaWmIyCCRAPEXCX1hNcAiClXLqH+PAVrfAgMBAAGjggEOMIIBCjALBgNVHQ8E
BAMCBaAwCQYDVR0TBAIwADARBglghkgBhvhCAQEEBAMCBkAwMwYJYIZIAYb4QgEN
BCYWJE9wZW5TU0wgR2VuZXJhdGVkIFNlcnZlciBDZXJ0aWZpY2F0ZTAdBgNVHQ4E
FgQUuBXZcjxG0IcxckqGSJdlM4rP7hAwdAYDVR0jBG0wa4AU9KfAzJFGr2TzkfIn
+Miyb4qHMnOhSKRGMEQxCzAJBgNVBAYTAkRFMQ8wDQYDVQQIDAZIZXNzZW4xFDAS
BgNVBAoMC3ByaXZhY3lpZGVhMQ4wDAYDVQQDDAVDQTAwMYIJAPvI66yDzRIHMBMG
A1UdJQQMMAoGCCsGAQUFBwMBMA0GCSqGSIb3DQEBCwUAA4IBAQBh9V/YvDMzRksP
W/2KYmZgMLOBcZubzw7Az8qnyC0uFTKFOHGMVJUEO5jDvCX2H9e+aF/TtRpnQapZ
INodanJWHDK1729rwf5pF0n6NfUA5QpXKbwCU6VOg5H5tSh4GwCz3ZgaRAjIEbJK
F0SX6hZaEo6bAlLmED/nXD4J4vtSi7L+tN1neP8wW10HBC3m7ecPJ0rg0mqkBqpi
vRFDqPtlPjHapsd2gsbOKiHCiBt/csGOPDNj9RFAvMrb0mvr6RSTpPDb9jSJ50Qr
vP7rhBYASgVclOdhaVBoW+EGHhwJCCofQlwAjy7ivKctH++O5IvbAvQUe3BAFIHG
+kCob0zj
-----END CERTIFICATE-----
