Certificate:
    Data:
        Version: 3 (0x2)
        Serial Number: 268435669 (0x100000d5)
    Signature Algorithm: sha256WithRSAEncryption
        Issuer: C=DE, ST=Hessen, O=privacyidea, CN=CA001
        Validity
            Not Before: Jan  9 18:33:54 2019 GMT
            Not After : Jan  9 18:33:54 2020 GMT
        Subject: C=DE, ST=Hessen, O=privacyidea, CN=requester.localdomain
        Subject Public Key Info:
            Public Key Algorithm: rsaEncryption
                Public-Key: (2048 bit)
                Modulus:
                    00:cd:be:14:4f:fa:ce:01:3f:42:22:1b:1d:9c:af:
                    dd:92:d2:7f:db:6c:b7:3e:39:43:43:6b:13:03:f1:
                    05:f4:07:74:bc:76:69:28:0b:af:19:8e:d7:fc:e3:
                    cd:c6:58:f2:ca:7f:08:6d:53:fc:07:02:44:24:c6:
                    b4:34:4c:8c:04:fe:33:0e:40:e2:20:ba:02:73:5a:
                    f7:f5:4f:63:6e:cc:c6:b6:df:54:1d:37:39:7d:51:
                    36:26:5f:bd:dc:3f:a8:8b:6b:a2:ae:b6:9d:d6:21:
                    e7:df:41:b8:7a:28:2a:68:48:ca:a8:2d:ed:e1:e9:
                    46:5e:5a:72:6d:b4:84:38:87:91:fd:94:11:0b:28:
                    84:c6:c2:2f:2a:fb:01:f9:36:7a:09:75:d1:33:88:
                    3c:73:41:5b:c8:bf:94:89:70:a1:f0:c0:b9:2e:50:
                    53:1e:b1:17:64:69:f4:2d:81:e0:a9:0d:0e:32:e9:
                    ba:55:8a:85:f1:1b:6f:49:79:b4:7f:88:c3:0d:3e:
                    54:88:9b:3d:1f:38:8c:04:f3:ee:6a:63:2b:f5:c6:
                    db:b4:83:aa:c4:78:41:3a:7d:4b:e1:c8:3e:71:ca:
                    1b:61:59:ea:c6:c4:ca:32:5e:c9:e9:bf:12:29:e6:
                    c6:c3:63:fe:a0:55:da:7a:f1:60:98:4d:26:ed:fa:
                    70:2d
                Exponent: 65537 (0x10001)
        X509v3 extensions:
            X509v3 Key Usage: 
                Digital Signature, Key Encipherment
            X509v3 Basic Constraints: 
                CA:FALSE
            Netscape Cert Type: 
                SSL Server
            Netscape Comment: 
                OpenSSL Generated Server Certificate
            X509v3 Subject Key Identifier: 
                53:3F:ED:5D:09:07:B3:65:7B:AB:45:C9:24:5B:09:77:80:0A:96:ED
            X509v3 Authority Key Identifier: 
                keyid:F4:A7:C0:CC:91:46:AF:64:F3:91:F2:27:F8:C8:B2:6F:8A:87:32:73
                DirName:/C=DE/ST=Hessen/O=privacyidea/CN=CA001
                serial:FB:C8:EB:AC:83:CD:12:07

            X509v3 Extended Key Usage: 
                TLS Web Server Authentication
    Signature Algorithm: sha256WithRSAEncryption
         04:77:49:31:4d:42:ca:ca:75:d7:57:3f:24:00:30:ca:32:b7:
         41:76:a5:ef:ff:ad:7b:03:14:fd:da:3b:8f:a6:02:55:e9:99:
         30:ed:53:48:b9:3f:cc:d5:21:1f:22:a0:c0:d6:e6:53:f8:8d:
         21:6a:2a:27:1f:c3:a4:de:9f:00:78:75:48:fe:1f:47:b6:50:
         17:21:a2:93:83:d4:4e:39:95:ce:f4:7d:14:9b:12:a2:cb:fa:
         b4:5d:c1:79:24:70:be:fc:a7:82:ff:04:f4:71:93:a6:37:a2:
         0f:00:49:b5:0b:18:b8:40:2d:99:53:63:34:fe:86:14:0a:d7:
         4b:64:ea:25:4e:66:cf:95:e1:ba:d1:9b:a7:5a:23:5a:42:c7:
         26:42:44:e2:37:6b:4c:41:4a:49:1d:aa:30:f8:26:b9:f1:d6:
         e7:4b:72:5b:d7:ac:04:03:93:b8:75:f1:d1:94:31:db:04:a5:
         7d:67:c6:af:ca:d1:df:68:6f:0a:3a:80:07:da:a4:4c:af:93:
         29:01:16:49:f2:90:b7:ea:11:74:31:78:1f:75:e3:97:98:9f:
         53:06:88:39:25:92:7f:75:88:c9:3f:6f:b3:ec:f5:27:13:a8:
         4e:70:f9:28:7f:b8:58:d5:dd:ed:d4:af:7a:9b:33:f8:cc:af:
         10:19:9e:9a
-----BEGIN CERTIFICATE-----
MIIEJjCCAw6gAwIBAgIEEAAA1TANBgkqhkiG9w0BAQsFADBEMQswCQYDVQQGEwJE
RTEPMA0GA1UECAwGSGVzc2VuMRQwEgYDVQQKDAtwcml2YWN5aWRlYTEOMAwGA1UE
AwwFQ0EwMDEwHhcNMTkwMTA5MTgzMzU0WhcNMjAwMTA5MTgzMzU0WjBUMQswCQYD
VQQGEwJERTEPMA0GA1UECAwGSGVzc2VuMRQwEgYDVQQKDAtwcml2YWN5aWRlYTEe
MBwGA1UEAwwVcmVxdWVzdGVyLmxvY2FsZG9tYWluMIIBIjANBgkqhkiG9w0BAQEF
AAOCAQ8AMIIBCgKCAQEAzb4UT/rOAT9CIhsdnK/dktJ/22y3PjlDQ2sTA/EF9Ad0
vHZpKAuvGY7X/OPNxljyyn8IbVP8BwJEJMa0NEyMBP4zDkDiILoCc1r39U9jbszG
tt9UHTc5fVE2Jl+93D+oi2uirrad1iHn30G4eigqaEjKqC3t4elGXlpybbSEOIeR
/ZQRCyiExsIvKvsB+TZ6CXXRM4g8c0FbyL+UiXCh8MC5LlBTHrEXZGn0LYHgqQ0O
Mum6VYqF8RtvSXm0f4jDDT5UiJs9HziMBPPuamMr9cbbtIOqxHhBOn1L4cg+ccob
YVnqxsTKMl7J6b8SKebGw2P+oFXaevFgmE0m7fpwLQIDAQABo4IBDjCCAQowCwYD
VR0PBAQDAgWgMAkGA1UdEwQCMAAwEQYJYIZIAYb4QgEBBAQDAgZAMDMGCWCGSAGG
+EIBDQQmFiRPcGVuU1NMIEdlbmVyYXRlZCBTZXJ2ZXIgQ2VydGlmaWNhdGUwHQYD
VR0OBBYEFFM/7V0JB7Nle6tFySRbCXeACpbtMHQGA1UdIwRtMGuAFPSnwMyRRq9k
85HyJ/jIsm+KhzJzoUikRjBEMQswCQYDVQQGEwJERTEPMA0GA1UECAwGSGVzc2Vu
MRQwEgYDVQQKDAtwcml2YWN5aWRlYTEOMAwGA1UEAwwFQ0EwMDGCCQD7yOusg80S
BzATBgNVHSUEDDAKBggrBgEFBQcDATANBgkqhkiG9w0BAQsFAAOCAQEABHdJMU1C
ysp111c/JAAwyjK3QXal7/+tewMU/do7j6YCVemZMO1TSLk/zNUhHyKgwNbmU/iN
IWoqJx/DpN6fAHh1SP4fR7ZQFyGik4PUTjmVzvR9FJsSosv6tF3BeSRwvvyngv8E
9HGTpjeiDwBJtQsYuEAtmVNjNP6GFArXS2TqJU5mz5XhutGbp1ojWkLHJkJE4jdr
TEFKSR2qMPgmufHW50tyW9esBAOTuHXx0ZQx2wSlfWfGr8rR32hvCjqAB9qkTK+T
KQEWSfKQt+oRdDF4H3Xjl5ifUwaIOSWSf3WIyT9vs+z1JxOoTnD5KH+4WNXd7dSv
epsz+MyvEBmemg==
-----END CERTIFICATE-----
